Microchip Technology Inc, vv3_24 (A) 

Tool Name:
  c:\program files (x86)\microchip\mplab c30\bin\bin\..\bin/pic30-coff-ld.exe

Command:
  -p24FJ256GB206 \
  -oD:\JOBs\openPicus\new projects\Tutorial\hack_a_fridge_alarm\Obj\a.cof \
  -LC:\Program Files (x86)\FlyPort IDE PRO\Microchip\TCPIP Stack\BigInt_helper_coff.a \
  -LC:\Program Files (x86)\FlyPort IDE PRO\Microchip\TCPIP Stack\BigInt_helper_elf.a \
  -LC:\Program Files (x86)\FlyPort IDE PRO\c30\support\gld \
  -LC:\Program Files (x86)\FlyPort IDE PRO\c30\lib \
  -LC:\Program Files (x86)\FlyPort IDE PRO\c30\lib\pic24f \
  -Lc:/program files (x86)/microchip/mplab c30/bin/bin/.. \
  -Lc:/program files (x86)/microchip/mplab c30/bin/bin/../../lib \
  -Lc:/program files (x86)/microchip/mplab c30/bin/bin/../../support/generic/gld \
  -Lc:/program files (x86)/microchip/mplab c30/bin/bin/../../lib/PIC24F \
  -Lc:/program files (x86)/microchip/mplab c30/bin/bin/../../support/PIC24F/gld \
  -Lc:/program files (x86)/microchip/mplab c30/bin/bin/../../lib/PIC24H \
  -Lc:/program files (x86)/microchip/mplab c30/bin/bin/../../support/PIC24H/gld \
  -Lc:/program files (x86)/microchip/mplab c30/bin/bin/../../lib/dsPIC30F \
  -Lc:/program files (x86)/microchip/mplab c30/bin/bin/../../support/dsPIC30F/gld \
  -Lc:/program files (x86)/microchip/mplab c30/bin/bin/../../lib/dsPIC33F \
  -Lc:/program files (x86)/microchip/mplab c30/bin/bin/../../support/dsPIC33F/gld \
  Announce.o \
  ARCFOUR.o \
  ARP.o \
  ARPlib.o \
  BigInt.o \
  BigInt_helper.o \
  Delay.o \
  DHCP.o \
  DHCPs.o \
  DNS.o \
  DNSs.o \
  DynDNS.o \
  ENCX24J600.o \
  FTP.o \
  FTPlib.o \
  Hashes.o \
  heap_2.o \
  Helpers.o \
  HTTP2.o \
  HTTPApp.o \
  HWInit.o \
  HWlib.o \
  ICMP.o \
  INTlib.o \
  IP.o \
  ISRs.o \
  list.o \
  Main.o \
  MPFS2.o \
  MPFSImg2.o \
  NBNS.o \
  NETlib.o \
  port.o \
  portasm_PIC24.o \
  queue.o \
  Random.o \
  Reboot.o \
  Regs.o \
  RSA.o \
  RTCClib.o \
  SMTP.o \
  SMTPlib.o \
  SNTP.o \
  SPIFlash.o \
  SSL.o \
  StackTsk.o \
  taskFlyport.o \
  tasks.o \
  TCP.o \
  TCPIP_Utils.o \
  TCPlib.o \
  Tick.o \
  UDP.o \
  UDPlib.o \
  WFConnectionAlgorithm.o \
  WFConnectionManager.o \
  WFConnectionProfile.o \
  WFDataTxRx.o \
  WFDebugStrings.o \
  WFDriverCom.o \
  WFDriverCom_24G.o \
  WFDriverRaw.o \
  WFDriverRaw_24G.o \
  WFEventHandler.o \
  WFInit.o \
  WFMac.o \
  WFMac_24G.o \
  WFMgmtMsg.o \
  WFMgmtMsg_24G.o \
  WFParamMsg.o \
  WFParamMsg_24G.o \
  WFPowerSave.o \
  WFScan.o \
  WFTxPower.o \
  WF_Config.o \
  WF_Eint.o \
  WF_Events.o \
  WF_Spi.o \
  WF_Utils.o \
  x_analog_in-pro.o \
  x_digital_io-pro.o \
  x_groveboard-pro.o \
  x_grovelib-pro.o \
  x_heap.o \
  x_i2c_devices-pro.o \
  x_input_capture.o \
  ZeroconfHelper.o \
  ZeroconfLinkLocal.o \
  ZeroconfMulticastDNS.o \
  -Tp24FJ256GB206.gld.00 \
  --defsym=__MPLAB_BUILD=1 \
  -Map=Flyport.map \
  --report-mem \
  --library=pic30 \
  --library=c \
  --library=m \
  -start-group \
  --library=pic30-coff \
  --library=m-coff \
  --library=c-coff \
  -end-group \

Archive member included because of file (symbol)

c:/program files (x86)/microchip/mplab c30/bin/bin/../../lib\libpic30-coff.a(crt0_extended.o)
                              (_resetPRI)
c:/program files (x86)/microchip/mplab c30/bin/bin/../../lib\libpic30-coff.a(c30_uart.o)
                              HWInit.o (__C30_UART)
c:/program files (x86)/microchip/mplab c30/bin/bin/../../lib\libpic30-coff.a(flash_helper.o)
                              NETlib.o (_flash_helper1)
c:/program files (x86)/microchip/mplab c30/bin/bin/../../lib\libpic30-coff.a(data_init_extended.o)
                              c:/program files (x86)/microchip/mplab c30/bin/bin/../../lib\libpic30-coff.a(crt0_extended.o) (_data_init_extended)
c:/program files (x86)/microchip/mplab c30/bin/bin/../../lib\libc-coff.a(memset.o)
                              DHCP.o (memset)
c:/program files (x86)/microchip/mplab c30/bin/bin/../../lib\libc-coff.a(strtok.o)
                              FTPlib.o (strtok)
c:/program files (x86)/microchip/mplab c30/bin/bin/../../lib\libc-coff.a(strcpy.o)
                              FTPlib.o (strcpy)
c:/program files (x86)/microchip/mplab c30/bin/bin/../../lib\libc-coff.a(strlen.o)
                              FTPlib.o (strlen)
c:/program files (x86)/microchip/mplab c30/bin/bin/../../lib\libc-coff.a(strcat.o)
                              FTPlib.o (strcat)
c:/program files (x86)/microchip/mplab c30/bin/bin/../../lib\libc-coff.a(xstoul.o)
                              FTPlib.o (_Stoul)
c:/program files (x86)/microchip/mplab c30/bin/bin/../../lib\libc-coff.a(sprintf.io)
                              FTPlib.o (_isprintf)
c:/program files (x86)/microchip/mplab c30/bin/bin/../../lib\libc-coff.a(strcmp.o)
                              FTPlib.o (strcmp)
c:/program files (x86)/microchip/mplab c30/bin/bin/../../lib\libc-coff.a(rand.o)
                              Helpers.o (rand)
c:/program files (x86)/microchip/mplab c30/bin/bin/../../lib\libc-coff.a(srand.o)
                              Helpers.o (srand)
c:/program files (x86)/microchip/mplab c30/bin/bin/../../lib\libc-coff.a(memcmp.o)
                              HTTP2.o (memcmp)
c:/program files (x86)/microchip/mplab c30/bin/bin/../../lib\libc-coff.a(memcpy.o)
                              HTTPApp.o (memcpy)
c:/program files (x86)/microchip/mplab c30/bin/bin/../../lib\libc-coff.a(strchr.o)
                              SMTP.o (strchr)
c:/program files (x86)/microchip/mplab c30/bin/bin/../../lib\libc-coff.a(strstr.o)
                              SMTP.o (strstr)
c:/program files (x86)/microchip/mplab c30/bin/bin/../../lib\libc-coff.a(localtim.o)
                              taskFlyport.o (localtime)
c:/program files (x86)/microchip/mplab c30/bin/bin/../../lib\libc-coff.a(asctime.o)
                              c:/program files (x86)/microchip/mplab c30/bin/bin/../../lib\libc-coff.a(localtim.o) (_Tls_setup__Times)
c:/program files (x86)/microchip/mplab c30/bin/bin/../../lib\libc-coff.a(strncpy.o)
                              tasks.o (strncpy)
c:/program files (x86)/microchip/mplab c30/bin/bin/../../lib\libc-coff.a(free.o)
                              x_analog_in-pro.o (free)
c:/program files (x86)/microchip/mplab c30/bin/bin/../../lib\libc-coff.a(malloc.o)
                              c:/program files (x86)/microchip/mplab c30/bin/bin/../../lib\libc-coff.a(free.o) (_Aldata)
c:/program files (x86)/microchip/mplab c30/bin/bin/../../lib\libc-coff.a(calloc.o)
                              x_grovelib-pro.o (calloc)
c:/program files (x86)/microchip/mplab c30/bin/bin/../../lib\libc-coff.a(strspn.o)
                              c:/program files (x86)/microchip/mplab c30/bin/bin/../../lib\libc-coff.a(strtok.o) (strspn)
c:/program files (x86)/microchip/mplab c30/bin/bin/../../lib\libc-coff.a(strcspn.o)
                              c:/program files (x86)/microchip/mplab c30/bin/bin/../../lib\libc-coff.a(strtok.o) (strcspn)
c:/program files (x86)/microchip/mplab c30/bin/bin/../../lib\libc-coff.a(isspace.o)
                              c:/program files (x86)/microchip/mplab c30/bin/bin/../../lib\libc-coff.a(xstoul.o) (isspace)
c:/program files (x86)/microchip/mplab c30/bin/bin/../../lib\libc-coff.a(tolower.o)
                              c:/program files (x86)/microchip/mplab c30/bin/bin/../../lib\libc-coff.a(xstoul.o) (tolower)
c:/program files (x86)/microchip/mplab c30/bin/bin/../../lib\libc-coff.a(memchr.o)
                              c:/program files (x86)/microchip/mplab c30/bin/bin/../../lib\libc-coff.a(xstoul.o) (memchr)
c:/program files (x86)/microchip/mplab c30/bin/bin/../../lib\libc-coff.a(errno.o)
                              c:/program files (x86)/microchip/mplab c30/bin/bin/../../lib\libc-coff.a(xstoul.o) (errno)
c:/program files (x86)/microchip/mplab c30/bin/bin/../../lib\libc-coff.a(xprintf.io)
                              c:/program files (x86)/microchip/mplab c30/bin/bin/../../lib\libc-coff.a(sprintf.io) (__iPrintf)
c:/program files (x86)/microchip/mplab c30/bin/bin/../../lib\libc-coff.a(xgetzone.o)
                              c:/program files (x86)/microchip/mplab c30/bin/bin/../../lib\libc-coff.a(localtim.o) (_Getzone)
c:/program files (x86)/microchip/mplab c30/bin/bin/../../lib\libc-coff.a(xgettime.o)
                              c:/program files (x86)/microchip/mplab c30/bin/bin/../../lib\libc-coff.a(localtim.o) (_Gettime)
c:/program files (x86)/microchip/mplab c30/bin/bin/../../lib\libc-coff.a(strtol.o)
                              c:/program files (x86)/microchip/mplab c30/bin/bin/../../lib\libc-coff.a(localtim.o) (strtol)
c:/program files (x86)/microchip/mplab c30/bin/bin/../../lib\libc-coff.a(xttotm.o)
                              c:/program files (x86)/microchip/mplab c30/bin/bin/../../lib\libc-coff.a(localtim.o) (_Ttotm)
c:/program files (x86)/microchip/mplab c30/bin/bin/../../lib\libc-coff.a(xstrftim.o)
                              c:/program files (x86)/microchip/mplab c30/bin/bin/../../lib\libc-coff.a(asctime.o) (_CStrftime)
c:/program files (x86)/microchip/mplab c30/bin/bin/../../lib\libc-coff.a(xgetmem.o)
                              c:/program files (x86)/microchip/mplab c30/bin/bin/../../lib\libc-coff.a(malloc.o) (_Getmem)
c:/program files (x86)/microchip/mplab c30/bin/bin/../../lib\libc-coff.a(xvacopy.o)
                              c:/program files (x86)/microchip/mplab c30/bin/bin/../../lib\libc-coff.a(xprintf.io) (_Vacopy)
c:/program files (x86)/microchip/mplab c30/bin/bin/../../lib\libc-coff.a(xputfld.io)
                              c:/program files (x86)/microchip/mplab c30/bin/bin/../../lib\libc-coff.a(xprintf.io) (__iPutfld)
c:/program files (x86)/microchip/mplab c30/bin/bin/../../lib\libc-coff.a(xputtxt.o)
                              c:/program files (x86)/microchip/mplab c30/bin/bin/../../lib\libc-coff.a(xprintf.io) (_Puttxt)
c:/program files (x86)/microchip/mplab c30/bin/bin/../../lib\libc-coff.a(isalpha.o)
                              c:/program files (x86)/microchip/mplab c30/bin/bin/../../lib\libc-coff.a(xgetzone.o) (isalpha)
c:/program files (x86)/microchip/mplab c30/bin/bin/../../lib\libc-coff.a(xisdst.o)
                              c:/program files (x86)/microchip/mplab c30/bin/bin/../../lib\libc-coff.a(xttotm.o) (_Isdst)
c:/program files (x86)/microchip/mplab c30/bin/bin/../../lib\libc-coff.a(xgentime.o)
                              c:/program files (x86)/microchip/mplab c30/bin/bin/../../lib\libc-coff.a(xstrftim.o) (_Gentime)
c:/program files (x86)/microchip/mplab c30/bin/bin/../../lib\libc-coff.a(xlitob.o)
                              c:/program files (x86)/microchip/mplab c30/bin/bin/../../lib\libc-coff.a(xputfld.io) (_Litob)
c:/program files (x86)/microchip/mplab c30/bin/bin/../../lib\libc-coff.a(xatexit.o)
                              c:/program files (x86)/microchip/mplab c30/bin/bin/../../lib\libc-coff.a(xisdst.o) (_Atexit)
c:/program files (x86)/microchip/mplab c30/bin/bin/../../lib\libc-coff.a(xgetdst.o)
                              c:/program files (x86)/microchip/mplab c30/bin/bin/../../lib\libc-coff.a(xisdst.o) (_Getdst)
c:/program files (x86)/microchip/mplab c30/bin/bin/../../lib\libm-coff.a(udivsi3.o)
                              BigInt.o (__udivsi3)
c:/program files (x86)/microchip/mplab c30/bin/bin/../../lib\libm-coff.a(divsf3.o)
                              HWlib.o (__divsf3)
c:/program files (x86)/microchip/mplab c30/bin/bin/../../lib\libm-coff.a(fgtge.o)
                              HWlib.o (__gtsf2)
c:/program files (x86)/microchip/mplab c30/bin/bin/../../lib\libm-coff.a(fixunssfsi.o)
                              HWlib.o (__fixunssfsi)
c:/program files (x86)/microchip/mplab c30/bin/bin/../../lib\libm-coff.a(floatsisf.o)
                              HWlib.o (__floatsisf)
c:/program files (x86)/microchip/mplab c30/bin/bin/../../lib\libm-coff.a(addsf3.o)
                              HWlib.o (__addsf3)
c:/program files (x86)/microchip/mplab c30/bin/bin/../../lib\libm-coff.a(mulsf3.o)
                              HWlib.o (__mulsf3)
c:/program files (x86)/microchip/mplab c30/bin/bin/../../lib\libm-coff.a(divmoddi3.o)
                              Tick.o (__udivdi3)
c:/program files (x86)/microchip/mplab c30/bin/bin/../../lib\libm-coff.a(muldi3.o)
                              WFMac_24G.o (__muldi3)
c:/program files (x86)/microchip/mplab c30/bin/bin/../../lib\libm-coff.a(mulsi3.o)
                              c:/program files (x86)/microchip/mplab c30/bin/bin/../../lib\libc-coff.a(xstoul.o) (__mulsi3)
c:/program files (x86)/microchip/mplab c30/bin/bin/../../lib\libm-coff.a(divsi3.o)
                              c:/program files (x86)/microchip/mplab c30/bin/bin/../../lib\libc-coff.a(localtim.o) (__divsi3)
c:/program files (x86)/microchip/mplab c30/bin/bin/../../lib\libm-coff.a(modsi3.o)
                              c:/program files (x86)/microchip/mplab c30/bin/bin/../../lib\libc-coff.a(xttotm.o) (__modsi3)
c:/program files (x86)/microchip/mplab c30/bin/bin/../../lib\libm-coff.a(umodsi3.o)
                              c:/program files (x86)/microchip/mplab c30/bin/bin/../../lib\libc-coff.a(xttotm.o) (__umodsi3)
c:/program files (x86)/microchip/mplab c30/bin/bin/../../lib\libm-coff.a(funpack2.o)
                              c:/program files (x86)/microchip/mplab c30/bin/bin/../../lib\libm-coff.a(divsf3.o) (_funpack2)
c:/program files (x86)/microchip/mplab c30/bin/bin/../../lib\libm-coff.a(futil.o)
                              c:/program files (x86)/microchip/mplab c30/bin/bin/../../lib\libm-coff.a(divsf3.o) (_fPropagateNaN)
c:/program files (x86)/microchip/mplab c30/bin/bin/../../lib\libm-coff.a(fpack.o)
                              c:/program files (x86)/microchip/mplab c30/bin/bin/../../lib\libm-coff.a(divsf3.o) (_fpack)
c:/program files (x86)/microchip/mplab c30/bin/bin/../../lib\libm-coff.a(fcompare.o)
                              c:/program files (x86)/microchip/mplab c30/bin/bin/../../lib\libm-coff.a(fgtge.o) (_fcompare)
c:/program files (x86)/microchip/mplab c30/bin/bin/../../lib\libm-coff.a(funpack.o)
                              c:/program files (x86)/microchip/mplab c30/bin/bin/../../lib\libm-coff.a(fixunssfsi.o) (_funpack)
c:/program files (x86)/microchip/mplab c30/bin/bin/../../lib\libm-coff.a(umuldi3.o)
                              c:/program files (x86)/microchip/mplab c30/bin/bin/../../lib\libm-coff.a(muldi3.o) (__umuldi3)
c:/program files (x86)/microchip/mplab c30/bin/bin/../../lib\libpic30-coff.a(getenv.o)
                              c:/program files (x86)/microchip/mplab c30/bin/bin/../../lib\libc-coff.a(xgetzone.o) (getenv)
c:/program files (x86)/microchip/mplab c30/bin/bin/../../lib\libpic30-coff.a(sbrk.o)
                              c:/program files (x86)/microchip/mplab c30/bin/bin/../../lib\libc-coff.a(xgetmem.o) (sbrk)
c:/program files (x86)/microchip/mplab c30/bin/bin/../../lib\libpic30-coff.a(brk.o)
                              c:/program files (x86)/microchip/mplab c30/bin/bin/../../lib\libpic30-coff.a(sbrk.o) (brk)


Program Memory  [Origin = 0x200, Length = 0x2a9f8]

section                    address   length (PC units)   length (bytes) (dec)
-------                    -------   -----------------   --------------------
.text                        0x200              0x22de          0x344d  (13389)
.const                      0x24de              0x1db2          0x2c8b  (11403)
MPFSData                    0x4290              0x98ee          0xe565  (58725)
.text                       0xdb7e             0x1084c         0x18c72  (101490)
.dinit                     0x1e3ca               0x842           0xc63  (3171)
.text                      0x1ec0c              0x9fb0          0xef88  (61320)
MPFSHelpers                0x28bbc                 0xe            0x15  (21)

                     Total program memory used (bytes):        0x3ceaf  (249519) 95%


Data Memory  [Origin = 0x800, Length = 0x18000]

section                    address      alignment gaps    total length  (dec)
-------                    -------      --------------    -------------------
BigInt_helper_vars           0x800                   0             0xc  (12)
.bss                         0x80c                   0          0x1ba2  (7074)
.data                       0x23ae                   0           0x3ec  (1004)
.bss                        0x279a                   0           0xe4a  (3658)
.data                       0x35e4                   0           0x2d6  (726)
.bss                        0x38ba                   0           0x4a6  (1190)
.data                       0x3d60                   0            0x4a  (74)
.bss                        0x3daa                   0            0x7c  (124)
.data                       0x3e26                   0            0x30  (48)
.dconst                     0x3e56                   0            0x2a  (42)
.bss                        0x3e80                   0            0x28  (40)
.data                       0x3ea8                   0            0x6e  (110)
.bss                        0x3f16                   0            0xa2  (162)
.data                       0x3fb8                   0            0x36  (54)
.bss                        0x3fee                   0            0x1e  (30)
.dconst                     0x400c                   0             0xe  (14)
.bss                        0x401a                   0            0x18  (24)
.data                       0x4032                   0             0xa  (10)
.bss                        0x403c                   0             0xa  (10)
.data                       0x4046                   0             0xa  (10)
.bss                        0x4050                   0             0xa  (10)
.data                       0x405a                   0            0x10  (16)
.bss                        0x406a                   0             0x8  (8)
.dconst                     0x4072                   0             0x8  (8)
.bss                        0x407a                   0             0x8  (8)
.data                       0x4082                   0             0x6  (6)
.bss                        0x4088                   0            0x18  (24)
.data                       0x40a0                   0             0x6  (6)
.bss                        0x40a6                   0             0x4  (4)
.data                       0x40aa                   0             0x8  (8)
.bss                        0x40b2                   0             0x8  (8)
.data                       0x40ba                   0             0xc  (12)
.bss                        0x40c6                   0             0x4  (4)
.dconst                     0x40ca                   0             0x4  (4)
.data                       0x40ce                   0             0x4  (4)
.bss                        0x40d2                   0             0x6  (6)
.data                       0x40d8                   0             0x2  (2)
.pbss                       0x40da                   0             0x2  (2)
.data                       0x40dc                   0             0x4  (4)
.bss                        0x40e0                   0             0x2  (2)
.data                       0x40e2                   0             0x6  (6)
.bss                        0x40e8                   0             0x2  (2)
.data                       0x40ea                   0             0x6  (6)
.pbss                       0x40f0                   0             0x2  (2)
.bss                        0x40f2                   0             0x2  (2)
.data                       0x40f4                   0             0x2  (2)
.pbss                       0x40f6                   0             0x2  (2)
.data                       0x40f8                   0             0x2  (2)
.bss                        0x40fa                   0             0x4  (4)
.data                       0x40fe                   0             0x6  (6)
.bss                        0x4104                   0             0x2  (2)
.data                       0x4106                   0             0x2  (2)
.bss                        0x4108                   0             0x2  (2)
.data                       0x410a                   0             0x4  (4)
.bss                        0x410e                   0             0x2  (2)
.data                       0x4110                   0             0x4  (4)
.bss                        0x4114                   0             0x2  (2)
.dconst                     0x4116                   0             0x2  (2)
.data                       0x4118                   0             0x2  (2)
.bss                        0x411a                   0             0x2  (2)
my_heap                     0x411c                   0           0x500  (1280)

                        Total data memory used (bytes):         0x3e1c  (15900) 16%


Dynamic Memory Usage

region                     address                      maximum length  (dec)
------                     -------                      ---------------------
heap                        0x411c                               0x500  (1280)
stack                       0x461c                              0x39e4  (14820)

                        Maximum dynamic memory (bytes):         0x3ee4  (16100)


External Symbols in Data Memory (by address):

                    0x0800                  __iA
                    0x0802                  __xA
                    0x0804                  __iB
                    0x0806                  __xB
                    0x0808                  __iR
                    0x080a                  __wC
                    0x1fe4                  _AppConfig
                    0x208e                  _xIPAddress
                    0x20f2                  _xWord
                    0x20f4                  _xChar
                    0x20f6                  _xByte
                    0x20f8                  _xByte2
                    0x20f9                  _xByte3
                    0x20fa                  _xInt
                    0x20fc                  _xInt2
                    0x20fe                  _xNode
                    0x2108                  _xQueue
                    0x210a                  _BUFFER_UDP_LEN
                    0x210c                  _udpBuffer
                    0x210e                  _udpRxLenGlobal
                    0x2110                  _udpSocket
                    0x2112                  _xUDPPort
                    0x2114                  _p_udp_data
                    0x2116                  _p_udp_wifiram
                    0x2118                  _xUDPRemoteHost
                    0x211c                  _udpWord
                    0x211e                  _udpInt
                    0x2120                  _udpByte
                    0x2122                  _UDPoverflowFlag
                    0x2124                  _NETConf
                    0x2278                  _WFStatusold
                    0x227a                  _xNet
                    0x22a8                  _udpRxLen
                    0x22aa                  _udpBuffer1
                    0x23a4                  _tmp_len
                    0x23a6                  _hTCPIPTask
                    0x23a8                  _hFlyTask
                    0x23aa                  _hTimerTask
                    0x23ac                  _xStatus
                    0x23ae                  _LATs
                    0x23fe                  _TRISs
                    0x244e                  _PORTs
                    0x249e                  _CNPUs
                    0x24ee                  _CNPDs
                    0x253e                  _CNPos
                    0x258e                  _IOPos
                    0x25de                  _an
                    0x25f2                  _UMODEs
                    0x25fa                  _USTAs
                    0x2602                  _UBRGs
                    0x260a                  _UIFSs
                    0x2612                  _UIECs
                    0x261a                  _UTXREGs
                    0x2622                  _URXREGs
                    0x262a                  _UTXIPos
                    0x2632                  _URXIPos
                    0x263a                  _AD1CONF1
                    0x263c                  _AD1CONF2
                    0x263e                  _AD1CONF3
                    0x2640                  _AD1CH
                    0x2642                  _AD1CSL
                    0x2644                  _OCCON1s
                    0x2656                  _OCCON2s
                    0x2668                  _OCRs
                    0x267a                  _OCRSs
                    0x268c                  _RPORs
                    0x26dc                  _RPFunc
                    0x26f2                  _RPIORPin
                    0x2742                  _TCONs
                    0x274c                  _OCM
                    0x275e                  _RPIRs
                    0x277c                  _RPIRPos
                    0x2b3c                  _TimerOn
                    0x2b62                  _E
                    0x2b6a                  _N
                    0x2b72                  _Y
                    0x2b7a                  _rsaData
                    0x2c7a                  _eData
                    0x2c7e                  _rsaTemp
                    0x2ee0                  _sslBuffer
                    0x30e0                  _sslHash
                    0x313a                  _sslSession
                    0x318a                  _sslSessionStubs
                    0x319a                  _ptrHS
                    0x319c                  _isStubUsed
                    0x319e                  _isHashUsed
                    0x31a0                  _isBufferUsed
                    0x31a2                  _MY_EMAIL
                    0x31d4                  _MY_EMAIL_USER
                    0x3206                  _MY_EMAIL_PASS
                    0x3224                  _MY_SMTP
                    0x3256                  _MY_SMTP_PORT
                    0x3260                  _EMAIL_DEST
                    0x3292                  _EMAIL_SUBJECT
                    0x32f6                  _EMAIL_BODY
                    0x33be                  _GMT
                    0x33c8                  _start_string
                    0x33d2                  _stop_string
                    0x33dc                  _dbg_string
                    0x3440                  _report
                    0x3442                  _start_alarm_time
                    0x3454                  _stop_alarm_time
                    0x3466                  _timer
                    0x34ea                  _String_post
                    0x35e4                  __Tls_setup__Times
                    0x35e6                  __Times
                    0x3750                  _connectionFailureStrings
                    0x3778                  _channelList_softAP_redirect
                    0x3778                  _connectionLostStrings
                    0x3784                  _deauthDisssocReasonCodes
                    0x37b6                  _statusCodes
                    0x3816                  _wpsState
                    0x3834                  _wpsConfigErr
                    0x388a                  _moduleName
                    0x39e6                  _UDPSocketInfo
                    0x3aa6                  _activeUDPSocket
                    0x3aa8                  _UDPTxCount
                    0x3aaa                  _UDPRxCount
                    0x3aac                  _curHTTP
                    0x3b2e                  _httpStubs
                    0x3b36                  _curHTTPID
                    0x3d10                  _IOMode
                    0x3daa                  _lastBlock
                    0x3e0c                  _SMTPClient
                    0x3ea8                  _ConnectionProfileID
                    0x3eaa                  __WFStat
                    0x3eac                  _WFConnection
                    0x3eae                  _xTCPPort
                    0x3eb0                  _xSocket
                    0x3eb2                  _xFrontEndStat
                    0x3eb4                  _xFrontEndStatRet
                    0x3eb6                  _xErr
                    0x3eb8                  _xBool
                    0x3eba                  _WPAWrong
                    0x3ebc                  _numUdpSocket
                    0x3ebe                  _xUDPLocalPort
                    0x3ec0                  _xUDPRemotePort
                    0x3ec2                  _activeUdpSocket
                    0x3ec3                  _callbackUdpSocket
                    0x3ec4                  _udpErr
                    0x3ec6                  _udpBool
                    0x3ec8                  _datadiscard
                    0x3eca                  _UDPoverflow
                    0x3ecc                  _xSemFrontEnd
                    0x3ece                  _xSemHW
                    0x3ed0                  _RPICRs
                    0x3edc                  _ICCON1Rs
                    0x3ee8                  _ICCON2Rs
                    0x3f48                  _g_rxBufferLength
                    0x3f4a                  _WF_hibernate
                    0x3f8c                  _RawMoveState
                    0x3f94                  _DhcpIpPool
                    0x3fb8                  _g_d1
                    0x3fba                  _g_d2
                    0x3fbc                  _g_SCK
                    0x3fbd                  _g_MISO
                    0x3fbe                  _g_MOSI
                    0x3fbf                  _g_SPI_CS
                    0x3fc0                  _g_SD_CD
                    0x3fc1                  _g_I2CSCL
                    0x3fc2                  _g_I2CSDA
                    0x3fc3                  _g_an
                    0x3fc6                  _GroveStarted
                    0x3fc8                  _Board
                    0x3ff4                  _remoteNode
                    0x4046                  __Tls_setup__Randseed
                    0x4048                  __Randseed
                    0x404c                  __Tls_setup__Randinit
                    0x404e                  __Randinit
                    0x405a                  _DHCPAssigned
                    0x405c                  _g_DhcpRenew
                    0x405e                  _g_DhcpRetryTimer
                    0x4062                  _g_DhcpSuccessful
                    0x4064                  _g_WiFiConnectionChanged
                    0x4066                  _g_WiFiConnection
                    0x4068                  _g_dhcpInProgress
                    0x4070                  _g_rxDtim
                    0x4084                  _bDHCPServerEnabled
                    0x4088                  _isr_int2
                    0x408a                  _isr_int3
                    0x408c                  _isr_int4
                    0x4092                  _arpt
                    0x409a                  _icflag
                    0x409c                  _icvalue
                    0x40a0                  __Size_block
                    0x40a2                  __Aldata
                    0x40ba                  _pxCurrentTCB
                    0x40be                  _g_HostRAWDataPacketReceived
                    0x40c0                  _g_RawIndexPastEnd
                    0x40c2                  _WFArpBroadcastIntervalSec
                    0x40ce                  __Tls_setup_errno
                    0x40d0                  _errno
                    0x40d8                  _DHCPClientInitializedOnce
                    0x40e2                  _uxCriticalNesting
                    0x40e4                  _alarmflag
                    0x40ec                  _ParamSet
                    0x40fc                  _RawWindowState
                    0x40fe                  _g_WaitingForMgmtResponse
                    0x4102                  _WFNetworkFound
                    0x4104                  _myRSSI
                    0x4106                  _ScanCompleted
                    0x410a                  _An_i
                    0x410c                  _Dig_io
                    0x410e                  _flag
                    0x4110                  ___C30_UART
                    0x411a                  ___curbrk

External Symbols in Data Memory (by name):

                    0x2640                  _AD1CH
                    0x263a                  _AD1CONF1
                    0x263c                  _AD1CONF2
                    0x263e                  _AD1CONF3
                    0x2642                  _AD1CSL
                    0x410a                  _An_i
                    0x1fe4                  _AppConfig
                    0x210a                  _BUFFER_UDP_LEN
                    0x3fc8                  _Board
                    0x24ee                  _CNPDs
                    0x249e                  _CNPUs
                    0x253e                  _CNPos
                    0x3ea8                  _ConnectionProfileID
                    0x405a                  _DHCPAssigned
                    0x40d8                  _DHCPClientInitializedOnce
                    0x3f94                  _DhcpIpPool
                    0x410c                  _Dig_io
                    0x2b62                  _E
                    0x32f6                  _EMAIL_BODY
                    0x3260                  _EMAIL_DEST
                    0x3292                  _EMAIL_SUBJECT
                    0x33be                  _GMT
                    0x3fc6                  _GroveStarted
                    0x3edc                  _ICCON1Rs
                    0x3ee8                  _ICCON2Rs
                    0x3d10                  _IOMode
                    0x258e                  _IOPos
                    0x23ae                  _LATs
                    0x31a2                  _MY_EMAIL
                    0x3206                  _MY_EMAIL_PASS
                    0x31d4                  _MY_EMAIL_USER
                    0x3224                  _MY_SMTP
                    0x3256                  _MY_SMTP_PORT
                    0x2b6a                  _N
                    0x2124                  _NETConf
                    0x2644                  _OCCON1s
                    0x2656                  _OCCON2s
                    0x274c                  _OCM
                    0x267a                  _OCRSs
                    0x2668                  _OCRs
                    0x244e                  _PORTs
                    0x40ec                  _ParamSet
                    0x26dc                  _RPFunc
                    0x3ed0                  _RPICRs
                    0x26f2                  _RPIORPin
                    0x277c                  _RPIRPos
                    0x275e                  _RPIRs
                    0x268c                  _RPORs
                    0x3f8c                  _RawMoveState
                    0x40fc                  _RawWindowState
                    0x3e0c                  _SMTPClient
                    0x4106                  _ScanCompleted
                    0x34ea                  _String_post
                    0x2742                  _TCONs
                    0x23fe                  _TRISs
                    0x2b3c                  _TimerOn
                    0x2602                  _UBRGs
                    0x3aaa                  _UDPRxCount
                    0x39e6                  _UDPSocketInfo
                    0x3aa8                  _UDPTxCount
                    0x3eca                  _UDPoverflow
                    0x2122                  _UDPoverflowFlag
                    0x2612                  _UIECs
                    0x260a                  _UIFSs
                    0x25f2                  _UMODEs
                    0x2632                  _URXIPos
                    0x2622                  _URXREGs
                    0x25fa                  _USTAs
                    0x262a                  _UTXIPos
                    0x261a                  _UTXREGs
                    0x40c2                  _WFArpBroadcastIntervalSec
                    0x3eac                  _WFConnection
                    0x4102                  _WFNetworkFound
                    0x2278                  _WFStatusold
                    0x3f4a                  _WF_hibernate
                    0x3eba                  _WPAWrong
                    0x2b72                  _Y
                    0x40a2                  __Aldata
                    0x404e                  __Randinit
                    0x4048                  __Randseed
                    0x40a0                  __Size_block
                    0x35e6                  __Times
                    0x404c                  __Tls_setup__Randinit
                    0x4046                  __Tls_setup__Randseed
                    0x35e4                  __Tls_setup__Times
                    0x40ce                  __Tls_setup_errno
                    0x3eaa                  __WFStat
                    0x4110                  ___C30_UART
                    0x411a                  ___curbrk
                    0x0800                  __iA
                    0x0804                  __iB
                    0x0808                  __iR
                    0x080a                  __wC
                    0x0802                  __xA
                    0x0806                  __xB
                    0x3aa6                  _activeUDPSocket
                    0x3ec2                  _activeUdpSocket
                    0x40e4                  _alarmflag
                    0x25de                  _an
                    0x4092                  _arpt
                    0x4084                  _bDHCPServerEnabled
                    0x3ec3                  _callbackUdpSocket
                    0x3778                  _channelList_softAP_redirect
                    0x3750                  _connectionFailureStrings
                    0x3778                  _connectionLostStrings
                    0x3aac                  _curHTTP
                    0x3b36                  _curHTTPID
                    0x3ec8                  _datadiscard
                    0x33dc                  _dbg_string
                    0x3784                  _deauthDisssocReasonCodes
                    0x2c7a                  _eData
                    0x40d0                  _errno
                    0x410e                  _flag
                    0x405c                  _g_DhcpRenew
                    0x405e                  _g_DhcpRetryTimer
                    0x4062                  _g_DhcpSuccessful
                    0x40be                  _g_HostRAWDataPacketReceived
                    0x3fc1                  _g_I2CSCL
                    0x3fc2                  _g_I2CSDA
                    0x3fbd                  _g_MISO
                    0x3fbe                  _g_MOSI
                    0x40c0                  _g_RawIndexPastEnd
                    0x3fbc                  _g_SCK
                    0x3fc0                  _g_SD_CD
                    0x3fbf                  _g_SPI_CS
                    0x40fe                  _g_WaitingForMgmtResponse
                    0x4066                  _g_WiFiConnection
                    0x4064                  _g_WiFiConnectionChanged
                    0x3fc3                  _g_an
                    0x3fb8                  _g_d1
                    0x3fba                  _g_d2
                    0x4068                  _g_dhcpInProgress
                    0x3f48                  _g_rxBufferLength
                    0x4070                  _g_rxDtim
                    0x23a8                  _hFlyTask
                    0x23a6                  _hTCPIPTask
                    0x23aa                  _hTimerTask
                    0x3b2e                  _httpStubs
                    0x409a                  _icflag
                    0x409c                  _icvalue
                    0x31a0                  _isBufferUsed
                    0x319e                  _isHashUsed
                    0x319c                  _isStubUsed
                    0x4088                  _isr_int2
                    0x408a                  _isr_int3
                    0x408c                  _isr_int4
                    0x3daa                  _lastBlock
                    0x388a                  _moduleName
                    0x4104                  _myRSSI
                    0x3ebc                  _numUdpSocket
                    0x2114                  _p_udp_data
                    0x2116                  _p_udp_wifiram
                    0x319a                  _ptrHS
                    0x40ba                  _pxCurrentTCB
                    0x3ff4                  _remoteNode
                    0x3440                  _report
                    0x2b7a                  _rsaData
                    0x2c7e                  _rsaTemp
                    0x2ee0                  _sslBuffer
                    0x30e0                  _sslHash
                    0x313a                  _sslSession
                    0x318a                  _sslSessionStubs
                    0x3442                  _start_alarm_time
                    0x33c8                  _start_string
                    0x37b6                  _statusCodes
                    0x3454                  _stop_alarm_time
                    0x33d2                  _stop_string
                    0x3466                  _timer
                    0x23a4                  _tmp_len
                    0x3ec6                  _udpBool
                    0x210c                  _udpBuffer
                    0x22aa                  _udpBuffer1
                    0x2120                  _udpByte
                    0x3ec4                  _udpErr
                    0x211e                  _udpInt
                    0x22a8                  _udpRxLen
                    0x210e                  _udpRxLenGlobal
                    0x2110                  _udpSocket
                    0x211c                  _udpWord
                    0x40e2                  _uxCriticalNesting
                    0x3834                  _wpsConfigErr
                    0x3816                  _wpsState
                    0x3eb8                  _xBool
                    0x20f6                  _xByte
                    0x20f8                  _xByte2
                    0x20f9                  _xByte3
                    0x20f4                  _xChar
                    0x3eb6                  _xErr
                    0x3eb2                  _xFrontEndStat
                    0x3eb4                  _xFrontEndStatRet
                    0x208e                  _xIPAddress
                    0x20fa                  _xInt
                    0x20fc                  _xInt2
                    0x227a                  _xNet
                    0x20fe                  _xNode
                    0x2108                  _xQueue
                    0x3ecc                  _xSemFrontEnd
                    0x3ece                  _xSemHW
                    0x3eb0                  _xSocket
                    0x23ac                  _xStatus
                    0x3eae                  _xTCPPort
                    0x3ebe                  _xUDPLocalPort
                    0x2112                  _xUDPPort
                    0x2118                  _xUDPRemoteHost
                    0x3ec0                  _xUDPRemotePort
                    0x20f2                  _xWord

External Symbols in Program Memory (by address):

                  0x000200                  __resetPRI
                  0x000222                  __psv_init
                  0x00022e                  __data_init_extended
                  0x00022e                  __data_init
                  0x00039c                  __flash_helper1
                  0x0003b8                  __flash_helper2
                  0x0003bc                  __flash_helper3
                  0x0003e0                  __flash_helper4
                  0x0003e2                  __flash_helper5
                  0x0003f0                  __flash_helper6
                  0x0003f6                  _memset
                  0x000404                  _strtok
                  0x00043c                  _strcpy
                  0x00044c                  _strlen
                  0x00045a                  _strcat
                  0x000478                  __Stoul
                  0x0005a0                  sprintf.io:_prout
                  0x0005ac                  __isprintf
                  0x0005ce                  _strcmp
                  0x0005f2                  _rand
                  0x00069c                  _srand
                  0x0006be                  _memcmp
                  0x0006da                  _memcpy
                  0x0006e8                  _strchr
                  0x0006fa                  _strstr
                  0x000722                  __Tzoff
                  0x0007b4                  _localtime
                  0x0007c8                  __Getptimes
                  0x0007d4                  _asctime
                  0x0007f2                  _strncpy
                  0x000814                  _free
                  0x00087c                  _malloc
                  0x000920                  _calloc
                  0x00093e                  _strspn
                  0x000962                  _strcspn
                  0x000986                  _isspace
                  0x000996                  _tolower
                  0x0009a4                  _memchr
                  0x0009b8                  __Geterrno
                  0x0009c4                  ___iPrintf
                  0x000b36                  __Getzone
                  0x000bee                  __Gettime
                  0x000c2e                  _strtol
                  0x000cc0                  __Daysto
                  0x000cf8                  __Ttotm
                  0x000dee                  __CStrftime
                  0x000ecc                  __Getmem
                  0x000eda                  __Vacopy
                  0x000ee4                  ___iPutfld
                  0x00116a                  __Puttxt
                  0x0012fe                  _isalpha
                  0x001312                  xisdst.o:__Tls_dtor_rules
                  0x001316                  xisdst.o:__Tls_setupx_rules
                  0x00132c                  __Isdst
                  0x001632                  __Gentime
                  0x001a10                  __Litob
                  0x001d22                  __Atexit
                  0x001d60                  __Getdst
                  0x001e5a                  ___mulp32peds3
                  0x001e5a                  ___mulsi3
                  0x001e5a                  ___mulp32eds3
                  0x001eb2                  ___udivsi3
                  0x001ed2                  ___divsf3
                  0x001f56                  ___gesf2
                  0x001f56                  ___gtsf2
                  0x001f5a                  ___fixunssfsi
                  0x001f90                  ___floatsisf
                  0x001fe6                  ___subsf3
                  0x001fe8                  ___addsf3
                  0x0020a2                  ___mulsf3
                  0x002130                  ___udivmoddi3
                  0x0021fe                  ___udivdi3
                  0x00220c                  ___umoddi3
                  0x002214                  ___divdi3
                  0x00224e                  ___moddi3
                  0x002320                  ___muldi3
                  0x00237c                  ___divsi3
                  0x00239a                  ___modsi3
                  0x0023b8                  ___umodsi3
                  0x0023be                  __funpack2
                  0x0023ce                  __fPropagateNaN
                  0x0023e0                  __fbopExit
                  0x0023e8                  __fbopReturnNaN
                  0x0023ee                  __fpack
                  0x00243a                  __fcompare
                  0x002470                  __funpack
                  0x00249a                  ___umuldi3
                  0x0040a0                  _TCPSocketInitializer
                  0x00416a                  _g_RawAccessOutOfBoundsMask
                  0x004210                  _ICPos
                  0x00428a                  _MPFS_Start
                  0x004294                  BEGIN_MPFS
                  0x00dc36                  _TCPInit
                  0x00dd12                  _TCPOpen
                  0x00de66                  _TCPWasReset
                  0x00de9a                  _TCPIsConnected
                  0x00dec2                  _TCPDisconnect
                  0x00df86                  _TCPClose
                  0x00dfa2                  _TCPGetRemoteInfo
                  0x00dfce                  _TCPFlush
                  0x00dff0                  _TCPIsPutReady
                  0x00e084                  _TCPPut
                  0x00e150                  _TCPPutArray
                  0x00e288                  _TCPPutString
                  0x00e2a6                  _TCPGetTxFIFOFull
                  0x00e2d4                  _TCPDiscard
                  0x00e2f2                  _TCPIsGetReady
                  0x00e330                  _TCPGet
                  0x00e3a2                  _TCPGetArray
                  0x00e466                  _TCPGetRxFIFOFree
                  0x00e4aa                  _TCPPeekArray
                  0x00e554                  _TCPPeek
                  0x00e56c                  _TCPFindArrayEx
                  0x00e7f6                  _TCPFindEx
                  0x00e814                  _TCPTick
                  0x00ece8                  _TCPProcess
                  0x00ff06                  _TCPAdjustFIFOSize
                  0x010184                  _TCPStartSSLClient
                  0x010204                  _TCPStartSSLClientEx
                  0x010288                  _TCPRequestSSLMessage
                  0x0102c2                  _TCPSSLIsHandshaking
                  0x0102e6                  _TCPIsSSL
                  0x010312                  _TCPSSLHandshakeComplete
                  0x01032a                  _TCPSSLDecryptMAC
                  0x010438                  _TCPSSLInPlaceMACEncrypt
                  0x010546                  _TCPSSLPutRecordHeader
                  0x0105c6                  _TCPSSLGetPendingTxSize
                  0x010606                  _TCPSSLHandleIncoming
                  0x0108c4                  __dbgwrite
                  0x0108d2                  _ADCInit
                  0x010902                  _ADCRefEnable
                  0x010920                  __ADC1Interrupt
                  0x010934                  _ADCVal
                  0x010958                  _ADCAttach
                  0x010984                  _ADCDetach
                  0x0109b8                  _IOPut
                  0x010ad4                  _IOInit
                  0x010fea                  _IOGet
                  0x011068                  _IOButtonState
                  0x011126                  _UARTInit
                  0x01127c                  _UARTOn
                  0x011352                  _UARTOff
                  0x0113e0                  _UARTRxInt
                  0x0114de                  _UARTFlush
                  0x01150a                  _UARTBufferSize
                  0x01159e                  _UARTRead
                  0x011660                  _UARTWrite
                  0x0116f8                  _UARTWriteCh
                  0x01176e                  _PWMInit
                  0x0119e6                  _PWMOn
                  0x011b2a                  _PWMDuty
                  0x011ba0                  _PWMOff
                  0x011bb8                  _I2CInit
                  0x011bd4                  _I2CStart
                  0x011c16                  _I2CRestart
                  0x011c58                  _I2CStop
                  0x011c9a                  _I2CGetDevAck
                  0x011cd8                  _I2CTimeout
                  0x011ce8                  _I2CAddrSizeSet
                  0x011d0e                  _I2CAddrSizeGet
                  0x011d1a                  _I2CWrite
                  0x011d9c                  _I2CRead
                  0x011e42                  _I2CReadReg
                  0x011ea6                  _I2CReadMulti
                  0x011f60                  _I2CWriteReg
                  0x011fa6                  _I2CWriteMulti
                  0x012008                  _I2C2Init
                  0x012020                  _I2C2Start
                  0x012062                  _I2C2Restart
                  0x0120a4                  _I2C2Stop
                  0x0120e6                  _I2C2GetDevAck
                  0x012124                  _I2C2Timeout
                  0x012134                  _I2C2AddrSizeSet
                  0x01215a                  _I2C2AddrSizeGet
                  0x012166                  _I2C2Write
                  0x0121e8                  _I2C2Read
                  0x01228e                  _I2C2ReadReg
                  0x0122f2                  _I2C2ReadMulti
                  0x0123ac                  _I2C2WriteReg
                  0x0123f2                  _I2C2WriteMulti
                  0x012454                  _EEInit
                  0x012496                  _EERWDelay
                  0x0124a2                  _EESetPageSize
                  0x0124ae                  _EEGetPageSize
                  0x012988                  _EESaveData
                  0x012ab6                  _EELoadData
                  0x012b8e                  _EEEraseData
                  0x012c8a                  _EESaveString
                  0x012ca2                  _EELoadString
                  0x012cba                  _EEEraseString
                  0x012cce                  _SSLInit
                  0x012d32                  _SSLPeriodic
                  0x012d80                  _SSLStartSession
                  0x012e74                  _SSLTerminate
                  0x012eaa                  _SSLRxRecord
                  0x013034                  _SSLTxRecord
                  0x0130cc                  _SSLTxMessage
                  0x013168                  _SSLRxHandshake
                  0x01442e                  _SSLMACBegin
                  0x0144b8                  _SSLMACAdd
                  0x0144cc                  _SSLMACCalc
                  0x014518                  _HTTPPrint
                  0x01453a                  _HTTPPrint_
                  0x014556                  _HTTPInit
                  0x0145de                  _HTTPServer
                  0x015494                  _HTTPURLDecode
                  0x015562                  _HTTPGetArg
                  0x0155aa                  _HTTPReadPostName
                  0x0155d2                  _HTTPReadPostValue
                  0x0157c0                  _HTTPIncFile
                  0x01588c                  _SMTPBeginUsage
                  0x0158f2                  _SMTPEndUsage
                  0x01594c                  _SMTPTask
                  0x0165d8                  _SMTPSendMail
                  0x0165e8                  _SMTPIsBusy
                  0x0165fe                  _SMTPIsPutReady
                  0x01661c                  _SMTPPut
                  0x0166c0                  _SMTPPutArray
                  0x0166fc                  _SMTPPutString
                  0x016732                  _SMTPFlush
                  0x016740                  _SMTPPutDone
                  0x0168b8                  _FTPClientOpen
                  0x0168d0                  _FTPRead
                  0x0168e6                  _FTPWrite
                  0x0168fc                  _FTPClose
                  0x01690e                  _FTPisConn
                  0x01691c                  _FTPRxLen
                  0x01692a                  _FTPClientPasv
                  0x016aee                  _FTPSendCmd
                  0x016b94                  _FTPConnect
                  0x016e00                  _FTPFileCheck
                  0x016e96                  _FTPFileSize
                  0x016f40                  _FTPStore
                  0x016f56                  _FTPAppend
                  0x01713e                  _FTPStreamOpen
                  0x0172c4                  _FTPStreamWrite
                  0x017396                  _FTPStreamRead
                  0x01750c                  _FTPStreamClose
                  0x01752c                  _FTPStreamStat
                  0x017536                  _FTPAnswer
                  0x017592                  _FTPRxFlush
                  0x01764e                  _FTPRxRead
                  0x017768                  _HashAddData
                  0x017794                  _MD5Initialize
                  0x0177d0                  _MD5AddData
                  0x017ad2                  _MD5Calculate
                  0x017c56                  _SHA1Initialize
                  0x017c9c                  _SHA1AddData
                  0x018122                  _SHA1Calculate
                  0x0183bc                  _WFGetPSK
                  0x018462                  _cWFGetPSK
                  0x0184b6                  _NETCustomSave
                  0x018594                  _NETCustomDelete
                  0x0185e2                  _NETCustomExist
                  0x018610                  _NETCustomLoad
                  0x0186a8                  _NETSetParam
                  0x018856                  _WFGeneric
                  0x0188ec                  _WFConnect
                  0x01898a                  _WFDisconnect
                  0x0189aa                  _WFScan
                  0x0189c6                  _RSSIUpdate
                  0x0189f0                  _cRSSIUpdate
                  0x018a4e                  _RSSIValue
                  0x018a5a                  _RSSIStatus
                  0x018a7c                  _WFScanList
                  0x018b50                  _WFStopConnecting
                  0x018be8                  _WFSetChannel
                  0x018c50                  _WFSetSecurity
                  0x018c9c                  _WFHibernate
                  0x018cc8                  _WFSleep
                  0x018d00                  _WFOn
                  0x018d32                  _WFPsPollEnable
                  0x018de8                  _cWFDisconnect
                  0x018e08                  _cWFScan
                  0x018e94                  _cWFScanList
                  0x018f60                  _WFGetStat
                  0x018f68                  _cWFStopConnecting
                  0x018fa0                  _cWFConnect
                  0x018fb4                  _cWFPsPollDisable
                  0x018fc0                  _cWFPsPollEnable
                  0x018fce                  _start_alarm
                  0x018fea                  _stop_alarm
                  0x01900a                  _FlyportTask
                  0x019b38                  _MPFSInit
                  0x019b62                  _MPFSOpen
                  0x019cb0                  _MPFSOpenID
                  0x019d34                  _MPFSClose
                  0x019d56                  _MPFSGet
                  0x019efc                  _MPFSGetArray
                  0x01a160                  _MPFSGetLong
                  0x01a180                  _MPFSSeek
                  0x01a39a                  _MPFSGetTimestamp
                  0x01a3e8                  _MPFSGetMicrotime
                  0x01a436                  _MPFSGetFlags
                  0x01a47a                  _MPFSGetSize
                  0x01a4c8                  _MPFSGetBytesRem
                  0x01a510                  _MPFSGetStartAddr
                  0x01a560                  _MPFSGetEndAddr
                  0x01a5ba                  _MPFSGetFilename
                  0x01a622                  _MPFSGetPosition
                  0x01a642                  _MPFSGetID
                  0x01a692                  _DHCPServerInit
                  0x01a6b4                  _DHCPServerSMInit
                  0x01a6be                  _DHCPServerTask
                  0x01b134                  _DHCPServer_Disable
                  0x01b15e                  _DHCPServer_Enable
                  0x01b16c                  _DHCPInit
                  0x01b1bc                  _DHCPDisable
                  0x01b1de                  _DHCPEnable
                  0x01b1f6                  _DHCPIsEnabled
                  0x01b20e                  _DHCPIsBound
                  0x01b21c                  _DHCPStateChanged
                  0x01b23e                  _DHCPIsServerDetected
                  0x01b24e                  _DHCPTempIPAddr
                  0x01b294                  _DHCPTask
                  0x01bc00                  _LFSRSeedRand
                  0x01bc40                  _LFSRRand
                  0x01bcae                  _GenerateRandomDWORD
                  0x01bdec                  _StringToIPAddress
                  0x01bf74                  _IPAddressToString
                  0x01bfb6                  _Base64Decode
                  0x01c0f4                  _Base64Encode
                  0x01c250                  _uitoa
                  0x01c2ce                  _ultoa
                  0x01c37e                  _hexatob
                  0x01c3f4                  _btohexa_high
                  0x01c41c                  _btohexa_low
                  0x01c442                  _stricmppgm2ram
                  0x01c4da                  _swaps
                  0x01c4f4                  _swapl
                  0x01c552                  _CalcIPChecksum
                  0x01c5c6                  _strupr
                  0x01c600                  _FormatNetBIOSName
                  0x01c648                  _strnchr
                  0x01c68e                  _xTaskGenericCreate
                  0x01c78a                  _vTaskDelete
                  0x01c7f6                  _vTaskDelayUntil
                  0x01c86e                  _vTaskDelay
                  0x01c8aa                  _vTaskPrioritySet
                  0x01c988                  _vTaskSuspend
                  0x01c9fa                  _xTaskIsTaskSuspended
                  0x01ca2c                  _vTaskResume
                  0x01ca8e                  _xTaskResumeFromISR
                  0x01cb00                  _vTaskStartScheduler
                  0x01cb34                  _vTaskEndScheduler
                  0x01cb4a                  _vTaskSuspendAll
                  0x01cb56                  _xTaskResumeAll
                  0x01cc08                  _xTaskGetTickCount
                  0x01cc1c                  _xTaskGetTickCountFromISR
                  0x01cc2c                  _uxTaskGetNumberOfTasks
                  0x01cc34                  _vTaskIncrementTick
                  0x01ccf0                  _vTaskSwitchContext
                  0x01cd4a                  _vTaskPlaceOnEventList
                  0x01cd82                  _xTaskRemoveFromEventList
                  0x01cdf2                  _vTaskSetTimeOutState
                  0x01ce06                  _xTaskCheckForTimeOut
                  0x01ce72                  _vTaskMissedYield
                  0x01ce7c                  tasks.o:_prvIdleTask
                  0x01d020                  _xTaskGetCurrentTaskHandle
                  0x01d02c                  _vTaskPriorityInherit
                  0x01d0a4                  _vTaskPriorityDisinherit
                  0x01d0fe                  _TCPSSLStatus
                  0x01d1a6                  _cTCPSSLStatus
                  0x01d1dc                  _TCPSSLStart
                  0x01d284                  _cTCPSSLStart
                  0x01d2b0                  _TCPGenericOpen
                  0x01d3a4                  _cTCPGenericOpen
                  0x01d3ce                  _TCPGenericClose
                  0x01d46e                  _cTCPGenericClose
                  0x01d47e                  _TCPServerDetach
                  0x01d51e                  _cTCPServerDetach
                  0x01d52e                  _TCPClientOpen
                  0x01d544                  _TCPServerOpen
                  0x01d558                  _TCPRead
                  0x01d604                  _TCPpRead
                  0x01d6b6                  _cTCPpRead
                  0x01d700                  _cTCPRead
                  0x01d722                  _TCPWrite
                  0x01d7e0                  _cTCPWrite
                  0x01d800                  _TCPRemote
                  0x01d8c6                  _cTCPRemote
                  0x01d8e2                  _TCPClientClose
                  0x01d8ee                  _TCPServerClose
                  0x01d8fa                  _TCPisConn
                  0x01d9a8                  _cTCPisConn
                  0x01d9ba                  _TCPRxFlush
                  0x01da5a                  _cTCPRxFlush
                  0x01da6a                  _TCPRxLen
                  0x01db12                  _cTCPRxLen
                  0x01db24                  _DNSInit
                  0x01db38                  _DNSBeginUsage
                  0x01db5e                  _DNSEndUsage
                  0x01db94                  _DNSResolve
                  0x01dbd6                  _DNSIsResolved
                  0x01ec0c                  _GetReadPtrRawWindow
                  0x01ed32                  _WFPeriodicGratuitousArp
                  0x01edba                  _RetrieveBinaryKey
                  0x01edf4                  _MACProcess
                  0x01ee1e                  _WFGetTCBSize
                  0x01ee26                  _MACInit
                  0x01ee30                  _RawInit
                  0x01ee70                  _MACIsLinked
                  0x01ee7a                  _MACIsTxReady
                  0x01ee98                  _RawGetMgmtRxBuffer
                  0x01eeac                  _MACDiscardRx
                  0x01eebe                  _MACGetFreeRxSize
                  0x01ef34                  _MACGetHeader
                  0x01f010                  _MACPutHeader
                  0x01f06c                  _MACPutGeneralHeader
                  0x01f0ba                  _MACFlush
                  0x01f0dc                  _MACSetReadPtrInRx
                  0x01f0ec                  _MACSetWritePtr
                  0x01f100                  _MACSetReadPtr
                  0x01f114                  _MACCalcRxChecksum
                  0x01f13c                  _MACMemCopyAsync
                  0x01f364                  _MACIsMemCopyDone
                  0x01f36c                  _MACGet
                  0x01f38a                  _MACGetArray
                  0x01f3ce                  _MACPut
                  0x01f3ee                  _MACPutArray
                  0x01f40e                  _MACPowerDown
                  0x01f414                  _MACPowerUp
                  0x01f41a                  _CalcIPBufferChecksum
                  0x01f43c                  _UDPGenericOpen
                  0x01f504                  _cUDPGenericOpen
                  0x01f5a4                  _UDPLocalPort
                  0x01f5bc                  _UDPServerOpen
                  0x01f5d0                  _UDPClientOpen
                  0x01f5f8                  _UDPBroadcastOpen
                  0x01f60c                  _UDPGenericClose
                  0x01f69c                  _cUDPGenericClose
                  0x01f6d0                  _UDPServerClose
                  0x01f6de                  _UDPClientClose
                  0x01f6ec                  _UDPRxLen
                  0x01f700                  _UDPRxFlush
                  0x01f750                  _UDPRxOver
                  0x01f782                  _UDPRead
                  0x01f8b0                  _UDPpRead
                  0x01f9a0                  _UDPWrite
                  0x01fa4c                  _cUDPWrite
                  0x01fa88                  _UDPMultiOn
                  0x01fb32                  _cUDPMultiOn
                  0x01fbda                  _UDPMultiOpen
                  0x01fc3c                  _UDPInit
                  0x01fc5e                  _UDPOpenEx
                  0x01fd7e                  _UDPTask
                  0x01ff64                  _UDPIsOpened
                  0x01ff86                  _UDPClose
                  0x01ffbe                  _UDPSetTxBuffer
                  0x01ffd2                  _UDPSetRxBuffer
                  0x01ffe6                  _UDPIsPutReady
                  0x02001e                  _UDPPut
                  0x020052                  _UDPPutArray
                  0x02008a                  _UDPPutString
                  0x0200a0                  _UDPFlush
                  0x020100                  _UDPIsGetReady
                  0x02013c                  _UDPGet
                  0x020174                  _UDPGetArray
                  0x0201c0                  _UDPDiscard
                  0x0201e8                  _UDPProcess
                  0x0203c0                  _HTTPExecuteGet
                  0x0203c8                  _HTTPExecutePost
                  0x020ae4                  _HTTPNeedsAuth
                  0x020b06                  _HTTPCheckAuth
                  0x020b34                  _SPIFlashInit
                  0x020c52                  _SPIFlashReadArray
                  0x020d44                  _SPIFlashBeginWrite
                  0x020d52                  _SPIFlashWrite
                  0x020e70                  _SPIFlashWriteArray
                  0x0210b2                  _SPIFlashEraseSector
                  0x0211d4                  _xQueueGenericReset
                  0x021262                  _xQueueGenericCreate
                  0x0212c4                  _xQueueCreateMutex
                  0x02132a                  _xQueueGenericSend
                  0x021414                  _xQueueGenericSendFromISR
                  0x02147e                  _xQueueGenericReceive
                  0x0215c4                  _xQueueReceiveFromISR
                  0x021630                  _uxQueueMessagesWaiting
                  0x021648                  _uxQueueMessagesWaitingFromISR
                  0x021658                  _vQueueDelete
                  0x0217f8                  _xQueueIsQueueEmptyFromISR
                  0x02183c                  _xQueueIsQueueFullFromISR
                  0x02185c                  _CmdCheck
                  0x021b9c                  _main
                  0x021bf4                  _TCPIPTask
                  0x021eb4                  _RSAInit
                  0x021ed2                  _RSABeginUsage
                  0x021f0e                  _RSAEndUsage
                  0x021f18                  _RSASetData
                  0x021fc6                  _RSASetResult
                  0x021fe0                  _RSASetE
                  0x022048                  _RSASetN
                  0x02206a                  _RSAStep
                  0x0224f2                  _WiFiTask
                  0x022576                  _WFProcess
                  0x0225a8                  _SignalDHCPSuccessful
                  0x0225b6                  _SetDhcpProgressState
                  0x0225ce                  _SignalWiFiConnectionChanged
                  0x02267c                  _Read8BitWFRegister
                  0x0226a6                  _Write8BitWFRegister
                  0x0226ce                  _Read16BitWFRegister
                  0x022702                  _Write16BitWFRegister
                  0x022736                  _WriteWFArray
                  0x022766                  _ReadWFArray
                  0x0228aa                  _WFEintHandler
                  0x022954                  _ReenablePowerSaveMode
                  0x02295e                  _WFHardwareInit
                  0x022b24                  _WF_OutputConnectionContext
                  0x022bb6                  _WF_OutputConnectionDebugMsg
                  0x022dfe                  _WF_OutputConnectionInfo
                  0x02308c                  _WF_AssertionFailed
                  0x0230fc                  _WF_DisplayModuleAssertInfo
                  0x02314c                  _ReadBatteryLevel
                  0x02316e                  _GroveDevicesPowerSupply
                  0x02318e                  x_groveboard-pro.o:_Board_ctor
                  0x023286                  _attachSensorToI2CBus
                  0x023338                  _attachSensorToDigioBus
                  0x02345a                  _attachSensorToAnBus
                  0x023522                  _attachSensorToUartBus
                  0x023640                  __IC1Interrupt
                  0x02367a                  __IC2Interrupt
                  0x023694                  __IC3Interrupt
                  0x0236ce                  __IC4Interrupt
                  0x0236e8                  __IC5Interrupt
                  0x023722                  __IC6Interrupt
                  0x02373c                  _IOInit_
                  0x0237e4                  _ICInit
                  0x02387e                  _ICOn
                  0x023950                  _ICOff
                  0x0239be                  _OneWireDecode
                  0x023b1a                  _WFEnableMRF24WB0MMode
                  0x023b2c                  _WFEnableDebugPrint
                  0x023b3c                  _WF_SetLinkDownThreshold
                  0x023b4c                  _WF_SetTxMode
                  0x023b5c                  _WF_GetTxMode
                  0x023b6c                  _WFEnableBroadcastProbeResponse
                  0x023b7e                  _WF_GetDeviceInfo
                  0x023bd4                  _WF_SetMacAddress
                  0x023be4                  _WF_GetMacAddress
                  0x023bf4                  _WF_MulticastSetConfig
                  0x023ca0                  _WF_MulticastGetConfig
                  0x023d06                  _WF_SetTxDataConfirm
                  0x023d16                  _WF_GetTxDataConfirm
                  0x023d26                  _WF_SetRegionalDomain
                  0x023d36                  _WF_GetRegionalDomain
                  0x023d46                  _WF_SetRtsThreshold
                  0x023d70                  _WF_YieldPassphrase2Host
                  0x023d82                  _WF_SetPSK
                  0x023d92                  _WF_GetRtsThreshold
                  0x023db0                  _WF_SetMultiCastFilter
                  0x023e26                  _WF_EnableSWMultiCastFilter
                  0x023e38                  _WF_GetMacStats
                  0x023f6c                  _SendSetParamMsg
                  0x023f9c                  _SendGetParamMsg
                  0x023fd0                  _RawCalculateChecksum
                  0x023fec                  _AllocateMgmtTxBuffer
                  0x02403e                  _DeallocateMgmtRxBuffer
                  0x02404e                  _AllocateDataTxBuffer
                  0x0240aa                  _SendRAWDataFrame
                  0x0240d4                  _SendRAWManagementFrame
                  0x0240e6                  _DeallocateDataRxBuffer
                  0x024110                  _RawMountRxBuffer
                  0x024140                  _RawToRawCopy
                  0x02416e                  _PushRawWindow
                  0x024180                  _PopRawWindow
                  0x024198                  _ScratchMount
                  0x0241bc                  _ScratchUnmount
                  0x0241ce                  _RawRead
                  0x0241ea                  _RawWrite
                  0x024288                  _RawSetIndex
                  0x024314                  _RawGetIndex
                  0x024330                  _RawGetByte
                  0x02436c                  _RawSetByte
                  0x02446a                  _WF_CASetElements
                  0x024522                  _WF_CASetElementsN
                  0x024556                  _WF_CAGetElements
                  0x0245a0                  _WF_CASetScanType
                  0x0245b0                  _WF_CAGetScanType
                  0x0245c2                  _WF_CASetMinChannelTime
                  0x0245dc                  _WF_CAGetMinChannelTime
                  0x0245fc                  _WF_CASetMaxChannelTime
                  0x024616                  _WF_CAGetMaxChannelTime
                  0x024636                  _WF_CASetProbeDelay
                  0x024650                  _WF_CAGetProbeDelay
                  0x024670                  _WF_CASetScanCount
                  0x024680                  _WF_CAGetScanCount
                  0x024692                  _WF_CASetRssi
                  0x0246a2                  _WF_CAGetRssi
                  0x0246b4                  _WF_CASetListRetryCount
                  0x0246c4                  _WF_CAGetListRetryCount
                  0x0246d6                  _WF_CASetEventNotificationAction
                  0x0246e2                  _WF_CAGetEventNotificationAction
                  0x0246f2                  _WF_CASetBeaconTimeoutAction
                  0x024702                  _WF_CAGetBeaconTimeoutAction
                  0x024714                  _WF_CASetDeauthAction
                  0x024724                  _WF_CAGetDeauthAction
                  0x024736                  _WF_CASetChannelList
                  0x024748                  _WF_CAGetChannelList
                  0x024784                  _WF_CASetListenInterval
                  0x02479e                  _WF_CASetDtimInterval
                  0x0247b8                  _WF_CAGetListenInterval
                  0x0247d8                  _WF_CASetBeaconPeriod
                  0x0247f2                  _WF_CAGetBeaconPeriod
                  0x024812                  _WF_CAGetDtimInterval
                  0x024832                  _WF_CASetBeaconTimeout
                  0x024842                  _WF_CAGetBeaconTimeout
                  0x024860                  _GetEventNotificationMask
                  0x0248e2                  _WF_DisableModuleConnectionManager
                  0x0248f4                  _StackInit
                  0x02496e                  _StackTask
                  0x024d4e                  _StackApplications
                  0x024d68                  _RenewDhcp
                  0x024d76                  _ARPSendPkt
                  0x024e3a                  _ARPInit
                  0x024e94                  _ARPProcess
                  0x024fac                  _ARPResolve
                  0x025090                  _ARPIsResolved
                  0x0251b2                  _SwapARPPacket
                  0x0251e4                  _NBNSInit
                  0x0251ee                  _NBNSTask
                  0x0255aa                  _GenericSMTP
                  0x025652                  _SMTPStart
                  0x02565c                  _cSMTPStart
                  0x02566a                  _SMTPSetServer
                  0x02570a                  _cSMTPSetServer
                  0x025756                  _SMTPSetMsg
                  0x0257f6                  _cSMTPSetMsg
                  0x025852                  _SMTPSend
                  0x02585c                  _cSMTPSend
                  0x02586c                  _SMTPBusy
                  0x025876                  _cSMTPBusy
                  0x025884                  _SMTPStop
                  0x02588e                  _cSMTPStop
                  0x0258a8                  _SMTPReport
                  0x02594e                  _cSMTPReport
                  0x02595c                  _WF_CPCreate
                  0x02598a                  _WF_CPDelete
                  0x0259ae                  _WF_CPGetIds
                  0x0259d6                  _WF_CPSetElements
                  0x0259fc                  _WF_CPGetElements
                  0x025a12                  _WF_CPSetSsidType
                  0x025a26                  _WF_CPGetSsidType
                  0x025a3c                  _WF_CPSetSsid
                  0x025a62                  _WF_CPGetSsid
                  0x025aa2                  _WF_CPSetBssid
                  0x025ab6                  _WF_CPGetBssid
                  0x025acc                  _WF_CPSetNetworkType
                  0x025ae0                  _WF_CPGetNetworkType
                  0x025af6                  _WF_CPSetWepKeyType
                  0x025b0a                  _WF_CPGetWepKeyType
                  0x025b20                  _WF_CPGetWPSCredentials
                  0x025b36                  _WF_CPUpdatePMK
                  0x025b4a                  _WF_CPSetSecurity
                  0x025bc2                  _WF_CPGetSecurity
                  0x025c2c                  _WF_CPSetDefaultWepKeyIndex
                  0x025c40                  _WF_CPGetDefaultWepKeyIndex
                  0x025c56                  _WF_CPSetAdHocBehavior
                  0x025c6a                  _WF_CPGetAdHocBehavior
                  0x025cfe                  _BigInt
                  0x025d2e                  _BigIntZero
                  0x025d54                  _BigIntMod
                  0x025e2a                  _BigIntCompare
                  0x025ebe                  _BigIntMagnitudeDifference
                  0x025ed8                  _BigIntMagnitude
                  0x025f3a                  _BigIntMultiply
                  0x025f72                  _BigIntSquare
                  0x025f9c                  _BigIntCopy
                  0x025fc8                  _BigIntSwapEndianness
                  0x026000                  __RTCCInterrupt
                  0x02604a                  _RTCCAlarmStat
                  0x026066                  _RTCCSet
                  0x0260ee                  _RTCCGet
                  0x02615a                  _RTCCAlarmConf
                  0x026246                  _RTCCAlarmSet
                  0x0262fc                  _DisplayIPValue
                  0x026336                  _InitAppConfig
                  0x026586                  _WFProcessMgmtIndicateMsg
                  0x0267d8                  _new
                  0x026802                  _delete_
                  0x026834                  _delet_
                  0x026842                  _attachToBoard
                  0x02688e                  _configure
                  0x0268ca                  _set
                  0x026906                  _get
                  0x026956                  _readError
                  0x026a0a                  _SNTPInit
                  0x026a1a                  _SNTPClient
                  0x026be2                  _SNTPGetUTCSeconds
                  0x026c3a                  _IPGetHeader
                  0x026d4c                  _IPPutHeader
                  0x026df4                  _IPSetRxBuffer
                  0x026e3a                  x_digital_io-pro.o:_Dig_io_ctor
                  0x026ed4                  x_digital_io-pro.o:_Dig_io_dtor
                  0x026f12                  x_digital_io-pro.o:_Dig_io_attach
                  0x026f52                  x_digital_io-pro.o:_Dig_io_set_dig_io
                  0x026ff6                  x_digital_io-pro.o:_Dig_io_get_dig_io
                  0x02701c                  _SendMgmtMsg
                  0x0270a2                  _SignalMgmtConfirmReceivedEvent
                  0x0270ac                  _WaitForMgmtResponse
                  0x02714c                  _WaitForMgmtResponseAndReadData
                  0x0271ae                  _WFSetFuncState
                  0x0271da                  _nothigToDo
                  0x0271e0                  _INTDetach
                  0x027210                  _INTAttach
                  0x027242                  _INTInit
                  0x0272da                  _INTPriority
                  0x02733a                  _INTEnable
                  0x02736a                  _INTDisable
                  0x027394                  __U1RXInterrupt
                  0x0273b4                  __U2RXInterrupt
                  0x0273d4                  __U3RXInterrupt
                  0x0273f4                  __U4RXInterrupt
                  0x0273fa                  __DefaultInterrupt
                  0x027424                  __OscillatorFail
                  0x02744e                  __AddressError
                  0x027478                  __StackError
                  0x0274a2                  __MathError
                  0x0274cc                  __INT2Interrupt
                  0x0274f4                  __INT3Interrupt
                  0x02751c                  __INT4Interrupt
                  0x027544                  _pvPortMalloc
                  0x027634                  _vPortFree
                  0x027690                  _xPortGetFreeHeapSize
                  0x027698                  _vPortInitialiseBlocks
                  0x0276ce                  _AnnounceInit
                  0x0276d8                  _AnnounceIP
                  0x027764                  _DiscoveryTask
                  0x027856                  _WFConfigureLowPowerMode
                  0x027896                  _WF_PsPollEnable
                  0x0278d8                  _isSleepNeeded
                  0x0278e0                  _ClearSleepNeeded
                  0x0278ea                  _SetSleepNeeded
                  0x0278f4                  _SetAppPowerSaveMode
                  0x027900                  _GetAppPowerSaveMode
                  0x027908                  _WF_PsPollDisable
                  0x02792a                  _WF_GetPowerSaveState
                  0x02793a                  _WFisPsPollEnabled
                  0x02795c                  _WFIsPsPollActive
                  0x027964                  _EnsureWFisAwake
                  0x027986                  _WF_HibernateEnable
                  0x0279b4                  _SetPowerSaveState
                  0x0279c0                  _pxPortInitialiseStack
                  0x027a56                  _xPortStartScheduler
                  0x027a86                  _vPortEndScheduler
                  0x027aba                  _vPortEnterCritical
                  0x027ace                  _vPortExitCritical
                  0x027ae8                  __T5Interrupt
                  0x027b16                  _WF_CMConnect
                  0x027b66                  _WF_CMDisconnect
                  0x027b9e                  _WF_CMGetConnectionState
                  0x027bf4                  _WFisConnected
                  0x027bfc                  _SetLogicalConnectionState
                  0x027c08                  _WF_CMCheckConnectionState
                  0x027c44                  _WF_CMGetConnectContext
                  0x027c56                  _TickInit
                  0x027cda                  _TickGet
                  0x027ce6                  _TickGetDiv256
                  0x027d16                  _TickGetDiv64K
                  0x027d46                  _TickConvertToMilliseconds
                  0x027d6c                  __T1Interrupt
                  0x027d84                  _vListInitialise
                  0x027db6                  _vListInitialiseItem
                  0x027dc4                  _vListInsertEnd
                  0x027e08                  _vListInsert
                  0x027e68                  _uxListRemove
                  0x027eb0                  _ARCFOURInitialize
                  0x027f42                  _ARCFOURCrypt
                  0x027fd2                  _HWInit
                  0x0280e4                  _DelayMs
                  0x028110                  _Delay10us
                  0x0281f4                  _WF_ProcessEvent
                  0x0282fe                  _ARPResolveMAC
                  0x0283ba                  _cARPResolveMAC
                  0x028406                  __addBI
                  0x028426                  __subBI
                  0x028446                  __zeroBI
                  0x028452                  __msbBI
                  0x028462                  __mulBI
                  0x028498                  __sqrBI
                  0x0284a2                  __masBI
                  0x0284c4                  __copyBI
                  0x0284e2                  _WF_SpiInit
                  0x028502                  _WF_SpiEnableChipSelect
                  0x02850a                  _WF_SpiDisableChipSelect
                  0x028514                  _WFSpiTxRx
                  0x0285b6                  _WF_Connect
                  0x0286a2                  _WF_Scan
                  0x0286e0                  _WF_ScanGetResult
                  0x028730                  _RandomInit
                  0x028776                  _RandomGet
                  0x0287ae                  _RandomAdd
                  0x0287d6                  _WF_EintIsDisabled
                  0x0287e8                  _WF_EintIsPending
                  0x02880a                  __INT1Interrupt
                  0x028844                  _WF_EintEnable
                  0x028856                  _WF_EintDisable
                  0x02885e                  _WF_EintInit
                  0x028870                  _set_register
                  0x0288cc                  _read_register
                  0x028908                  _WF_TxPowerSetMax
                  0x02894a                  _WF_TxPowerGetMax
                  0x028976                  _WF_TxPowerGetFactoryMax
                  0x028990                  x_analog_in-pro.o:_An_i_ctor
                  0x0289a6                  x_analog_in-pro.o:_An_i_dtor
                  0x0289cc                  x_analog_in-pro.o:_An_i_attach
                  0x0289ee                  x_analog_in-pro.o:_An_i_getan_i
                  0x028a14                  _ICMPProcess
                  0x028a92                  _OnConnectionSuccessful
                  0x028aa2                  _OnConnectionFailed
                  0x028aac                  _OnConnectionTempLost
                  0x028ab6                  _OnConnectionReestablished
                  0x028ac6                  _OnConnectionPermLost
                  0x028ad0                  _OnScanResult
                  0x028b00                  _WF_Init
                  0x028b68                  _vPortYield
                  0x028bbc                  _ReadProgramMemory

External Symbols in Program Memory (by name):

                  0x004294                  BEGIN_MPFS
                  0x010958                  _ADCAttach
                  0x010984                  _ADCDetach
                  0x0108d2                  _ADCInit
                  0x010902                  _ADCRefEnable
                  0x010934                  _ADCVal
                  0x027f42                  _ARCFOURCrypt
                  0x027eb0                  _ARCFOURInitialize
                  0x024e3a                  _ARPInit
                  0x025090                  _ARPIsResolved
                  0x024e94                  _ARPProcess
                  0x024fac                  _ARPResolve
                  0x0282fe                  _ARPResolveMAC
                  0x024d76                  _ARPSendPkt
                  0x02404e                  _AllocateDataTxBuffer
                  0x023fec                  _AllocateMgmtTxBuffer
                  0x0276d8                  _AnnounceIP
                  0x0276ce                  _AnnounceInit
                  0x01bfb6                  _Base64Decode
                  0x01c0f4                  _Base64Encode
                  0x025cfe                  _BigInt
                  0x025e2a                  _BigIntCompare
                  0x025f9c                  _BigIntCopy
                  0x025ed8                  _BigIntMagnitude
                  0x025ebe                  _BigIntMagnitudeDifference
                  0x025d54                  _BigIntMod
                  0x025f3a                  _BigIntMultiply
                  0x025f72                  _BigIntSquare
                  0x025fc8                  _BigIntSwapEndianness
                  0x025d2e                  _BigIntZero
                  0x01f41a                  _CalcIPBufferChecksum
                  0x01c552                  _CalcIPChecksum
                  0x0278e0                  _ClearSleepNeeded
                  0x02185c                  _CmdCheck
                  0x01b1bc                  _DHCPDisable
                  0x01b1de                  _DHCPEnable
                  0x01b16c                  _DHCPInit
                  0x01b20e                  _DHCPIsBound
                  0x01b1f6                  _DHCPIsEnabled
                  0x01b23e                  _DHCPIsServerDetected
                  0x01a692                  _DHCPServerInit
                  0x01a6b4                  _DHCPServerSMInit
                  0x01a6be                  _DHCPServerTask
                  0x01b134                  _DHCPServer_Disable
                  0x01b15e                  _DHCPServer_Enable
                  0x01b21c                  _DHCPStateChanged
                  0x01b294                  _DHCPTask
                  0x01b24e                  _DHCPTempIPAddr
                  0x01db38                  _DNSBeginUsage
                  0x01db5e                  _DNSEndUsage
                  0x01db24                  _DNSInit
                  0x01dbd6                  _DNSIsResolved
                  0x01db94                  _DNSResolve
                  0x0240e6                  _DeallocateDataRxBuffer
                  0x02403e                  _DeallocateMgmtRxBuffer
                  0x028110                  _Delay10us
                  0x0280e4                  _DelayMs
                  0x027764                  _DiscoveryTask
                  0x0262fc                  _DisplayIPValue
                  0x012b8e                  _EEEraseData
                  0x012cba                  _EEEraseString
                  0x0124ae                  _EEGetPageSize
                  0x012454                  _EEInit
                  0x012ab6                  _EELoadData
                  0x012ca2                  _EELoadString
                  0x012496                  _EERWDelay
                  0x012988                  _EESaveData
                  0x012c8a                  _EESaveString
                  0x0124a2                  _EESetPageSize
                  0x027964                  _EnsureWFisAwake
                  0x017536                  _FTPAnswer
                  0x016f56                  _FTPAppend
                  0x0168b8                  _FTPClientOpen
                  0x01692a                  _FTPClientPasv
                  0x0168fc                  _FTPClose
                  0x016b94                  _FTPConnect
                  0x016e00                  _FTPFileCheck
                  0x016e96                  _FTPFileSize
                  0x0168d0                  _FTPRead
                  0x017592                  _FTPRxFlush
                  0x01691c                  _FTPRxLen
                  0x01764e                  _FTPRxRead
                  0x016aee                  _FTPSendCmd
                  0x016f40                  _FTPStore
                  0x01750c                  _FTPStreamClose
                  0x01713e                  _FTPStreamOpen
                  0x017396                  _FTPStreamRead
                  0x01752c                  _FTPStreamStat
                  0x0172c4                  _FTPStreamWrite
                  0x0168e6                  _FTPWrite
                  0x01690e                  _FTPisConn
                  0x01900a                  _FlyportTask
                  0x01c600                  _FormatNetBIOSName
                  0x01bcae                  _GenerateRandomDWORD
                  0x0255aa                  _GenericSMTP
                  0x027900                  _GetAppPowerSaveMode
                  0x024860                  _GetEventNotificationMask
                  0x01ec0c                  _GetReadPtrRawWindow
                  0x02316e                  _GroveDevicesPowerSupply
                  0x020b06                  _HTTPCheckAuth
                  0x0203c0                  _HTTPExecuteGet
                  0x0203c8                  _HTTPExecutePost
                  0x015562                  _HTTPGetArg
                  0x0157c0                  _HTTPIncFile
                  0x014556                  _HTTPInit
                  0x020ae4                  _HTTPNeedsAuth
                  0x014518                  _HTTPPrint
                  0x01453a                  _HTTPPrint_
                  0x0155aa                  _HTTPReadPostName
                  0x0155d2                  _HTTPReadPostValue
                  0x0145de                  _HTTPServer
                  0x015494                  _HTTPURLDecode
                  0x027fd2                  _HWInit
                  0x017768                  _HashAddData
                  0x01215a                  _I2C2AddrSizeGet
                  0x012134                  _I2C2AddrSizeSet
                  0x0120e6                  _I2C2GetDevAck
                  0x012008                  _I2C2Init
                  0x0121e8                  _I2C2Read
                  0x0122f2                  _I2C2ReadMulti
                  0x01228e                  _I2C2ReadReg
                  0x012062                  _I2C2Restart
                  0x012020                  _I2C2Start
                  0x0120a4                  _I2C2Stop
                  0x012124                  _I2C2Timeout
                  0x012166                  _I2C2Write
                  0x0123f2                  _I2C2WriteMulti
                  0x0123ac                  _I2C2WriteReg
                  0x011d0e                  _I2CAddrSizeGet
                  0x011ce8                  _I2CAddrSizeSet
                  0x011c9a                  _I2CGetDevAck
                  0x011bb8                  _I2CInit
                  0x011d9c                  _I2CRead
                  0x011ea6                  _I2CReadMulti
                  0x011e42                  _I2CReadReg
                  0x011c16                  _I2CRestart
                  0x011bd4                  _I2CStart
                  0x011c58                  _I2CStop
                  0x011cd8                  _I2CTimeout
                  0x011d1a                  _I2CWrite
                  0x011fa6                  _I2CWriteMulti
                  0x011f60                  _I2CWriteReg
                  0x0237e4                  _ICInit
                  0x028a14                  _ICMPProcess
                  0x023950                  _ICOff
                  0x02387e                  _ICOn
                  0x004210                  _ICPos
                  0x027210                  _INTAttach
                  0x0271e0                  _INTDetach
                  0x02736a                  _INTDisable
                  0x02733a                  _INTEnable
                  0x027242                  _INTInit
                  0x0272da                  _INTPriority
                  0x011068                  _IOButtonState
                  0x010fea                  _IOGet
                  0x010ad4                  _IOInit
                  0x02373c                  _IOInit_
                  0x0109b8                  _IOPut
                  0x01bf74                  _IPAddressToString
                  0x026c3a                  _IPGetHeader
                  0x026d4c                  _IPPutHeader
                  0x026df4                  _IPSetRxBuffer
                  0x026336                  _InitAppConfig
                  0x01bc40                  _LFSRRand
                  0x01bc00                  _LFSRSeedRand
                  0x01f114                  _MACCalcRxChecksum
                  0x01eeac                  _MACDiscardRx
                  0x01f0ba                  _MACFlush
                  0x01f36c                  _MACGet
                  0x01f38a                  _MACGetArray
                  0x01eebe                  _MACGetFreeRxSize
                  0x01ef34                  _MACGetHeader
                  0x01ee26                  _MACInit
                  0x01ee70                  _MACIsLinked
                  0x01f364                  _MACIsMemCopyDone
                  0x01ee7a                  _MACIsTxReady
                  0x01f13c                  _MACMemCopyAsync
                  0x01f40e                  _MACPowerDown
                  0x01f414                  _MACPowerUp
                  0x01edf4                  _MACProcess
                  0x01f3ce                  _MACPut
                  0x01f3ee                  _MACPutArray
                  0x01f06c                  _MACPutGeneralHeader
                  0x01f010                  _MACPutHeader
                  0x01f100                  _MACSetReadPtr
                  0x01f0dc                  _MACSetReadPtrInRx
                  0x01f0ec                  _MACSetWritePtr
                  0x0177d0                  _MD5AddData
                  0x017ad2                  _MD5Calculate
                  0x017794                  _MD5Initialize
                  0x019d34                  _MPFSClose
                  0x019d56                  _MPFSGet
                  0x019efc                  _MPFSGetArray
                  0x01a4c8                  _MPFSGetBytesRem
                  0x01a560                  _MPFSGetEndAddr
                  0x01a5ba                  _MPFSGetFilename
                  0x01a436                  _MPFSGetFlags
                  0x01a642                  _MPFSGetID
                  0x01a160                  _MPFSGetLong
                  0x01a3e8                  _MPFSGetMicrotime
                  0x01a622                  _MPFSGetPosition
                  0x01a47a                  _MPFSGetSize
                  0x01a510                  _MPFSGetStartAddr
                  0x01a39a                  _MPFSGetTimestamp
                  0x019b38                  _MPFSInit
                  0x019b62                  _MPFSOpen
                  0x019cb0                  _MPFSOpenID
                  0x01a180                  _MPFSSeek
                  0x00428a                  _MPFS_Start
                  0x0251e4                  _NBNSInit
                  0x0251ee                  _NBNSTask
                  0x018594                  _NETCustomDelete
                  0x0185e2                  _NETCustomExist
                  0x018610                  _NETCustomLoad
                  0x0184b6                  _NETCustomSave
                  0x0186a8                  _NETSetParam
                  0x028aa2                  _OnConnectionFailed
                  0x028ac6                  _OnConnectionPermLost
                  0x028ab6                  _OnConnectionReestablished
                  0x028a92                  _OnConnectionSuccessful
                  0x028aac                  _OnConnectionTempLost
                  0x028ad0                  _OnScanResult
                  0x0239be                  _OneWireDecode
                  0x011b2a                  _PWMDuty
                  0x01176e                  _PWMInit
                  0x011ba0                  _PWMOff
                  0x0119e6                  _PWMOn
                  0x024180                  _PopRawWindow
                  0x02416e                  _PushRawWindow
                  0x021ed2                  _RSABeginUsage
                  0x021f0e                  _RSAEndUsage
                  0x021eb4                  _RSAInit
                  0x021f18                  _RSASetData
                  0x021fe0                  _RSASetE
                  0x022048                  _RSASetN
                  0x021fc6                  _RSASetResult
                  0x02206a                  _RSAStep
                  0x018a5a                  _RSSIStatus
                  0x0189c6                  _RSSIUpdate
                  0x018a4e                  _RSSIValue
                  0x02615a                  _RTCCAlarmConf
                  0x026246                  _RTCCAlarmSet
                  0x02604a                  _RTCCAlarmStat
                  0x0260ee                  _RTCCGet
                  0x026066                  _RTCCSet
                  0x0287ae                  _RandomAdd
                  0x028776                  _RandomGet
                  0x028730                  _RandomInit
                  0x023fd0                  _RawCalculateChecksum
                  0x024330                  _RawGetByte
                  0x024314                  _RawGetIndex
                  0x01ee98                  _RawGetMgmtRxBuffer
                  0x01ee30                  _RawInit
                  0x024110                  _RawMountRxBuffer
                  0x0241ce                  _RawRead
                  0x02436c                  _RawSetByte
                  0x024288                  _RawSetIndex
                  0x024140                  _RawToRawCopy
                  0x0241ea                  _RawWrite
                  0x0226ce                  _Read16BitWFRegister
                  0x02267c                  _Read8BitWFRegister
                  0x02314c                  _ReadBatteryLevel
                  0x028bbc                  _ReadProgramMemory
                  0x022766                  _ReadWFArray
                  0x022954                  _ReenablePowerSaveMode
                  0x024d68                  _RenewDhcp
                  0x01edba                  _RetrieveBinaryKey
                  0x017c9c                  _SHA1AddData
                  0x018122                  _SHA1Calculate
                  0x017c56                  _SHA1Initialize
                  0x01588c                  _SMTPBeginUsage
                  0x02586c                  _SMTPBusy
                  0x0158f2                  _SMTPEndUsage
                  0x016732                  _SMTPFlush
                  0x0165e8                  _SMTPIsBusy
                  0x0165fe                  _SMTPIsPutReady
                  0x01661c                  _SMTPPut
                  0x0166c0                  _SMTPPutArray
                  0x016740                  _SMTPPutDone
                  0x0166fc                  _SMTPPutString
                  0x0258a8                  _SMTPReport
                  0x025852                  _SMTPSend
                  0x0165d8                  _SMTPSendMail
                  0x025756                  _SMTPSetMsg
                  0x02566a                  _SMTPSetServer
                  0x025652                  _SMTPStart
                  0x025884                  _SMTPStop
                  0x01594c                  _SMTPTask
                  0x026a1a                  _SNTPClient
                  0x026be2                  _SNTPGetUTCSeconds
                  0x026a0a                  _SNTPInit
                  0x020d44                  _SPIFlashBeginWrite
                  0x0210b2                  _SPIFlashEraseSector
                  0x020b34                  _SPIFlashInit
                  0x020c52                  _SPIFlashReadArray
                  0x020d52                  _SPIFlashWrite
                  0x020e70                  _SPIFlashWriteArray
                  0x012cce                  _SSLInit
                  0x0144b8                  _SSLMACAdd
                  0x01442e                  _SSLMACBegin
                  0x0144cc                  _SSLMACCalc
                  0x012d32                  _SSLPeriodic
                  0x013168                  _SSLRxHandshake
                  0x012eaa                  _SSLRxRecord
                  0x012d80                  _SSLStartSession
                  0x012e74                  _SSLTerminate
                  0x0130cc                  _SSLTxMessage
                  0x013034                  _SSLTxRecord
                  0x024198                  _ScratchMount
                  0x0241bc                  _ScratchUnmount
                  0x023f9c                  _SendGetParamMsg
                  0x02701c                  _SendMgmtMsg
                  0x0240aa                  _SendRAWDataFrame
                  0x0240d4                  _SendRAWManagementFrame
                  0x023f6c                  _SendSetParamMsg
                  0x0278f4                  _SetAppPowerSaveMode
                  0x0225b6                  _SetDhcpProgressState
                  0x027bfc                  _SetLogicalConnectionState
                  0x0279b4                  _SetPowerSaveState
                  0x0278ea                  _SetSleepNeeded
                  0x0225a8                  _SignalDHCPSuccessful
                  0x0270a2                  _SignalMgmtConfirmReceivedEvent
                  0x0225ce                  _SignalWiFiConnectionChanged
                  0x024d4e                  _StackApplications
                  0x0248f4                  _StackInit
                  0x02496e                  _StackTask
                  0x01bdec                  _StringToIPAddress
                  0x0251b2                  _SwapARPPacket
                  0x00ff06                  _TCPAdjustFIFOSize
                  0x01d8e2                  _TCPClientClose
                  0x01d52e                  _TCPClientOpen
                  0x00df86                  _TCPClose
                  0x00e2d4                  _TCPDiscard
                  0x00dec2                  _TCPDisconnect
                  0x00e56c                  _TCPFindArrayEx
                  0x00e7f6                  _TCPFindEx
                  0x00dfce                  _TCPFlush
                  0x01d3ce                  _TCPGenericClose
                  0x01d2b0                  _TCPGenericOpen
                  0x00e330                  _TCPGet
                  0x00e3a2                  _TCPGetArray
                  0x00dfa2                  _TCPGetRemoteInfo
                  0x00e466                  _TCPGetRxFIFOFree
                  0x00e2a6                  _TCPGetTxFIFOFull
                  0x021bf4                  _TCPIPTask
                  0x00dc36                  _TCPInit
                  0x00de9a                  _TCPIsConnected
                  0x00e2f2                  _TCPIsGetReady
                  0x00dff0                  _TCPIsPutReady
                  0x0102e6                  _TCPIsSSL
                  0x00dd12                  _TCPOpen
                  0x00e554                  _TCPPeek
                  0x00e4aa                  _TCPPeekArray
                  0x00ece8                  _TCPProcess
                  0x00e084                  _TCPPut
                  0x00e150                  _TCPPutArray
                  0x00e288                  _TCPPutString
                  0x01d558                  _TCPRead
                  0x01d800                  _TCPRemote
                  0x010288                  _TCPRequestSSLMessage
                  0x01d9ba                  _TCPRxFlush
                  0x01da6a                  _TCPRxLen
                  0x01032a                  _TCPSSLDecryptMAC
                  0x0105c6                  _TCPSSLGetPendingTxSize
                  0x010606                  _TCPSSLHandleIncoming
                  0x010312                  _TCPSSLHandshakeComplete
                  0x010438                  _TCPSSLInPlaceMACEncrypt
                  0x0102c2                  _TCPSSLIsHandshaking
                  0x010546                  _TCPSSLPutRecordHeader
                  0x01d1dc                  _TCPSSLStart
                  0x01d0fe                  _TCPSSLStatus
                  0x01d8ee                  _TCPServerClose
                  0x01d47e                  _TCPServerDetach
                  0x01d544                  _TCPServerOpen
                  0x0040a0                  _TCPSocketInitializer
                  0x010184                  _TCPStartSSLClient
                  0x010204                  _TCPStartSSLClientEx
                  0x00e814                  _TCPTick
                  0x00de66                  _TCPWasReset
                  0x01d722                  _TCPWrite
                  0x01d8fa                  _TCPisConn
                  0x01d604                  _TCPpRead
                  0x027d46                  _TickConvertToMilliseconds
                  0x027cda                  _TickGet
                  0x027ce6                  _TickGetDiv256
                  0x027d16                  _TickGetDiv64K
                  0x027c56                  _TickInit
                  0x01150a                  _UARTBufferSize
                  0x0114de                  _UARTFlush
                  0x011126                  _UARTInit
                  0x011352                  _UARTOff
                  0x01127c                  _UARTOn
                  0x01159e                  _UARTRead
                  0x0113e0                  _UARTRxInt
                  0x011660                  _UARTWrite
                  0x0116f8                  _UARTWriteCh
                  0x01f5f8                  _UDPBroadcastOpen
                  0x01f6de                  _UDPClientClose
                  0x01f5d0                  _UDPClientOpen
                  0x01ff86                  _UDPClose
                  0x0201c0                  _UDPDiscard
                  0x0200a0                  _UDPFlush
                  0x01f60c                  _UDPGenericClose
                  0x01f43c                  _UDPGenericOpen
                  0x02013c                  _UDPGet
                  0x020174                  _UDPGetArray
                  0x01fc3c                  _UDPInit
                  0x020100                  _UDPIsGetReady
                  0x01ff64                  _UDPIsOpened
                  0x01ffe6                  _UDPIsPutReady
                  0x01f5a4                  _UDPLocalPort
                  0x01fa88                  _UDPMultiOn
                  0x01fbda                  _UDPMultiOpen
                  0x01fc5e                  _UDPOpenEx
                  0x0201e8                  _UDPProcess
                  0x02001e                  _UDPPut
                  0x020052                  _UDPPutArray
                  0x02008a                  _UDPPutString
                  0x01f782                  _UDPRead
                  0x01f700                  _UDPRxFlush
                  0x01f6ec                  _UDPRxLen
                  0x01f750                  _UDPRxOver
                  0x01f6d0                  _UDPServerClose
                  0x01f5bc                  _UDPServerOpen
                  0x01ffd2                  _UDPSetRxBuffer
                  0x01ffbe                  _UDPSetTxBuffer
                  0x01fd7e                  _UDPTask
                  0x01f9a0                  _UDPWrite
                  0x01f8b0                  _UDPpRead
                  0x027856                  _WFConfigureLowPowerMode
                  0x0188ec                  _WFConnect
                  0x01898a                  _WFDisconnect
                  0x0228aa                  _WFEintHandler
                  0x023b6c                  _WFEnableBroadcastProbeResponse
                  0x023b2c                  _WFEnableDebugPrint
                  0x023b1a                  _WFEnableMRF24WB0MMode
                  0x018856                  _WFGeneric
                  0x0183bc                  _WFGetPSK
                  0x018f60                  _WFGetStat
                  0x01ee1e                  _WFGetTCBSize
                  0x02295e                  _WFHardwareInit
                  0x018c9c                  _WFHibernate
                  0x02795c                  _WFIsPsPollActive
                  0x018d00                  _WFOn
                  0x01ed32                  _WFPeriodicGratuitousArp
                  0x022576                  _WFProcess
                  0x026586                  _WFProcessMgmtIndicateMsg
                  0x018d32                  _WFPsPollEnable
                  0x0189aa                  _WFScan
                  0x018a7c                  _WFScanList
                  0x018be8                  _WFSetChannel
                  0x0271ae                  _WFSetFuncState
                  0x018c50                  _WFSetSecurity
                  0x018cc8                  _WFSleep
                  0x028514                  _WFSpiTxRx
                  0x018b50                  _WFStopConnecting
                  0x02308c                  _WF_AssertionFailed
                  0x0247f2                  _WF_CAGetBeaconPeriod
                  0x024842                  _WF_CAGetBeaconTimeout
                  0x024702                  _WF_CAGetBeaconTimeoutAction
                  0x024748                  _WF_CAGetChannelList
                  0x024724                  _WF_CAGetDeauthAction
                  0x024812                  _WF_CAGetDtimInterval
                  0x024556                  _WF_CAGetElements
                  0x0246e2                  _WF_CAGetEventNotificationAction
                  0x0246c4                  _WF_CAGetListRetryCount
                  0x0247b8                  _WF_CAGetListenInterval
                  0x024616                  _WF_CAGetMaxChannelTime
                  0x0245dc                  _WF_CAGetMinChannelTime
                  0x024650                  _WF_CAGetProbeDelay
                  0x0246a2                  _WF_CAGetRssi
                  0x024680                  _WF_CAGetScanCount
                  0x0245b0                  _WF_CAGetScanType
                  0x0247d8                  _WF_CASetBeaconPeriod
                  0x024832                  _WF_CASetBeaconTimeout
                  0x0246f2                  _WF_CASetBeaconTimeoutAction
                  0x024736                  _WF_CASetChannelList
                  0x024714                  _WF_CASetDeauthAction
                  0x02479e                  _WF_CASetDtimInterval
                  0x02446a                  _WF_CASetElements
                  0x024522                  _WF_CASetElementsN
                  0x0246d6                  _WF_CASetEventNotificationAction
                  0x0246b4                  _WF_CASetListRetryCount
                  0x024784                  _WF_CASetListenInterval
                  0x0245fc                  _WF_CASetMaxChannelTime
                  0x0245c2                  _WF_CASetMinChannelTime
                  0x024636                  _WF_CASetProbeDelay
                  0x024692                  _WF_CASetRssi
                  0x024670                  _WF_CASetScanCount
                  0x0245a0                  _WF_CASetScanType
                  0x027c08                  _WF_CMCheckConnectionState
                  0x027b16                  _WF_CMConnect
                  0x027b66                  _WF_CMDisconnect
                  0x027c44                  _WF_CMGetConnectContext
                  0x027b9e                  _WF_CMGetConnectionState
                  0x02595c                  _WF_CPCreate
                  0x02598a                  _WF_CPDelete
                  0x025c6a                  _WF_CPGetAdHocBehavior
                  0x025ab6                  _WF_CPGetBssid
                  0x025c40                  _WF_CPGetDefaultWepKeyIndex
                  0x0259fc                  _WF_CPGetElements
                  0x0259ae                  _WF_CPGetIds
                  0x025ae0                  _WF_CPGetNetworkType
                  0x025bc2                  _WF_CPGetSecurity
                  0x025a62                  _WF_CPGetSsid
                  0x025a26                  _WF_CPGetSsidType
                  0x025b20                  _WF_CPGetWPSCredentials
                  0x025b0a                  _WF_CPGetWepKeyType
                  0x025c56                  _WF_CPSetAdHocBehavior
                  0x025aa2                  _WF_CPSetBssid
                  0x025c2c                  _WF_CPSetDefaultWepKeyIndex
                  0x0259d6                  _WF_CPSetElements
                  0x025acc                  _WF_CPSetNetworkType
                  0x025b4a                  _WF_CPSetSecurity
                  0x025a3c                  _WF_CPSetSsid
                  0x025a12                  _WF_CPSetSsidType
                  0x025af6                  _WF_CPSetWepKeyType
                  0x025b36                  _WF_CPUpdatePMK
                  0x0285b6                  _WF_Connect
                  0x0248e2                  _WF_DisableModuleConnectionManager
                  0x0230fc                  _WF_DisplayModuleAssertInfo
                  0x028856                  _WF_EintDisable
                  0x028844                  _WF_EintEnable
                  0x02885e                  _WF_EintInit
                  0x0287d6                  _WF_EintIsDisabled
                  0x0287e8                  _WF_EintIsPending
                  0x023e26                  _WF_EnableSWMultiCastFilter
                  0x023b7e                  _WF_GetDeviceInfo
                  0x023be4                  _WF_GetMacAddress
                  0x023e38                  _WF_GetMacStats
                  0x02792a                  _WF_GetPowerSaveState
                  0x023d36                  _WF_GetRegionalDomain
                  0x023d92                  _WF_GetRtsThreshold
                  0x023d16                  _WF_GetTxDataConfirm
                  0x023b5c                  _WF_GetTxMode
                  0x027986                  _WF_HibernateEnable
                  0x028b00                  _WF_Init
                  0x023ca0                  _WF_MulticastGetConfig
                  0x023bf4                  _WF_MulticastSetConfig
                  0x022b24                  _WF_OutputConnectionContext
                  0x022bb6                  _WF_OutputConnectionDebugMsg
                  0x022dfe                  _WF_OutputConnectionInfo
                  0x0281f4                  _WF_ProcessEvent
                  0x027908                  _WF_PsPollDisable
                  0x027896                  _WF_PsPollEnable
                  0x0286a2                  _WF_Scan
                  0x0286e0                  _WF_ScanGetResult
                  0x023b3c                  _WF_SetLinkDownThreshold
                  0x023bd4                  _WF_SetMacAddress
                  0x023db0                  _WF_SetMultiCastFilter
                  0x023d82                  _WF_SetPSK
                  0x023d26                  _WF_SetRegionalDomain
                  0x023d46                  _WF_SetRtsThreshold
                  0x023d06                  _WF_SetTxDataConfirm
                  0x023b4c                  _WF_SetTxMode
                  0x02850a                  _WF_SpiDisableChipSelect
                  0x028502                  _WF_SpiEnableChipSelect
                  0x0284e2                  _WF_SpiInit
                  0x028976                  _WF_TxPowerGetFactoryMax
                  0x02894a                  _WF_TxPowerGetMax
                  0x028908                  _WF_TxPowerSetMax
                  0x023d70                  _WF_YieldPassphrase2Host
                  0x027bf4                  _WFisConnected
                  0x02793a                  _WFisPsPollEnabled
                  0x0270ac                  _WaitForMgmtResponse
                  0x02714c                  _WaitForMgmtResponseAndReadData
                  0x0224f2                  _WiFiTask
                  0x022702                  _Write16BitWFRegister
                  0x0226a6                  _Write8BitWFRegister
                  0x022736                  _WriteWFArray
                  0x010920                  __ADC1Interrupt
                  0x02744e                  __AddressError
                  0x001d22                  __Atexit
                  0x000dee                  __CStrftime
                  0x000cc0                  __Daysto
                  0x0273fa                  __DefaultInterrupt
                  0x001632                  __Gentime
                  0x001d60                  __Getdst
                  0x0009b8                  __Geterrno
                  0x000ecc                  __Getmem
                  0x0007c8                  __Getptimes
                  0x000bee                  __Gettime
                  0x000b36                  __Getzone
                  0x023640                  __IC1Interrupt
                  0x02367a                  __IC2Interrupt
                  0x023694                  __IC3Interrupt
                  0x0236ce                  __IC4Interrupt
                  0x0236e8                  __IC5Interrupt
                  0x023722                  __IC6Interrupt
                  0x02880a                  __INT1Interrupt
                  0x0274cc                  __INT2Interrupt
                  0x0274f4                  __INT3Interrupt
                  0x02751c                  __INT4Interrupt
                  0x00132c                  __Isdst
                  0x001a10                  __Litob
                  0x0274a2                  __MathError
                  0x027424                  __OscillatorFail
                  0x00116a                  __Puttxt
                  0x026000                  __RTCCInterrupt
                  0x027478                  __StackError
                  0x000478                  __Stoul
                  0x027d6c                  __T1Interrupt
                  0x027ae8                  __T5Interrupt
                  0x000cf8                  __Ttotm
                  0x000722                  __Tzoff
                  0x027394                  __U1RXInterrupt
                  0x0273b4                  __U2RXInterrupt
                  0x0273d4                  __U3RXInterrupt
                  0x0273f4                  __U4RXInterrupt
                  0x000eda                  __Vacopy
                  0x001fe8                  ___addsf3
                  0x002214                  ___divdi3
                  0x001ed2                  ___divsf3
                  0x00237c                  ___divsi3
                  0x001f5a                  ___fixunssfsi
                  0x001f90                  ___floatsisf
                  0x001f56                  ___gesf2
                  0x001f56                  ___gtsf2
                  0x0009c4                  ___iPrintf
                  0x000ee4                  ___iPutfld
                  0x00224e                  ___moddi3
                  0x00239a                  ___modsi3
                  0x002320                  ___muldi3
                  0x001e5a                  ___mulp32eds3
                  0x001e5a                  ___mulp32peds3
                  0x0020a2                  ___mulsf3
                  0x001e5a                  ___mulsi3
                  0x001fe6                  ___subsf3
                  0x0021fe                  ___udivdi3
                  0x002130                  ___udivmoddi3
                  0x001eb2                  ___udivsi3
                  0x00220c                  ___umoddi3
                  0x0023b8                  ___umodsi3
                  0x00249a                  ___umuldi3
                  0x028406                  __addBI
                  0x0284c4                  __copyBI
                  0x00022e                  __data_init
                  0x00022e                  __data_init_extended
                  0x0108c4                  __dbgwrite
                  0x0023ce                  __fPropagateNaN
                  0x0023e0                  __fbopExit
                  0x0023e8                  __fbopReturnNaN
                  0x00243a                  __fcompare
                  0x00039c                  __flash_helper1
                  0x0003b8                  __flash_helper2
                  0x0003bc                  __flash_helper3
                  0x0003e0                  __flash_helper4
                  0x0003e2                  __flash_helper5
                  0x0003f0                  __flash_helper6
                  0x0023ee                  __fpack
                  0x002470                  __funpack
                  0x0023be                  __funpack2
                  0x0005ac                  __isprintf
                  0x0284a2                  __masBI
                  0x028452                  __msbBI
                  0x028462                  __mulBI
                  0x000222                  __psv_init
                  0x000200                  __resetPRI
                  0x028498                  __sqrBI
                  0x028426                  __subBI
                  0x028446                  __zeroBI
                  0x0007d4                  _asctime
                  0x02345a                  _attachSensorToAnBus
                  0x023338                  _attachSensorToDigioBus
                  0x023286                  _attachSensorToI2CBus
                  0x023522                  _attachSensorToUartBus
                  0x026842                  _attachToBoard
                  0x01c3f4                  _btohexa_high
                  0x01c41c                  _btohexa_low
                  0x0283ba                  _cARPResolveMAC
                  0x0189f0                  _cRSSIUpdate
                  0x025876                  _cSMTPBusy
                  0x02594e                  _cSMTPReport
                  0x02585c                  _cSMTPSend
                  0x0257f6                  _cSMTPSetMsg
                  0x02570a                  _cSMTPSetServer
                  0x02565c                  _cSMTPStart
                  0x02588e                  _cSMTPStop
                  0x01d46e                  _cTCPGenericClose
                  0x01d3a4                  _cTCPGenericOpen
                  0x01d700                  _cTCPRead
                  0x01d8c6                  _cTCPRemote
                  0x01da5a                  _cTCPRxFlush
                  0x01db12                  _cTCPRxLen
                  0x01d284                  _cTCPSSLStart
                  0x01d1a6                  _cTCPSSLStatus
                  0x01d51e                  _cTCPServerDetach
                  0x01d7e0                  _cTCPWrite
                  0x01d9a8                  _cTCPisConn
                  0x01d6b6                  _cTCPpRead
                  0x01f69c                  _cUDPGenericClose
                  0x01f504                  _cUDPGenericOpen
                  0x01fb32                  _cUDPMultiOn
                  0x01fa4c                  _cUDPWrite
                  0x018fa0                  _cWFConnect
                  0x018de8                  _cWFDisconnect
                  0x018462                  _cWFGetPSK
                  0x018fb4                  _cWFPsPollDisable
                  0x018fc0                  _cWFPsPollEnable
                  0x018e08                  _cWFScan
                  0x018e94                  _cWFScanList
                  0x018f68                  _cWFStopConnecting
                  0x000920                  _calloc
                  0x02688e                  _configure
                  0x026834                  _delet_
                  0x026802                  _delete_
                  0x000814                  _free
                  0x00416a                  _g_RawAccessOutOfBoundsMask
                  0x026906                  _get
                  0x01c37e                  _hexatob
                  0x0278d8                  _isSleepNeeded
                  0x0012fe                  _isalpha
                  0x000986                  _isspace
                  0x0007b4                  _localtime
                  0x021b9c                  _main
                  0x00087c                  _malloc
                  0x0009a4                  _memchr
                  0x0006be                  _memcmp
                  0x0006da                  _memcpy
                  0x0003f6                  _memset
                  0x0267d8                  _new
                  0x0271da                  _nothigToDo
                  0x027544                  _pvPortMalloc
                  0x0279c0                  _pxPortInitialiseStack
                  0x0005f2                  _rand
                  0x026956                  _readError
                  0x0288cc                  _read_register
                  0x0268ca                  _set
                  0x028870                  _set_register
                  0x00069c                  _srand
                  0x018fce                  _start_alarm
                  0x018fea                  _stop_alarm
                  0x00045a                  _strcat
                  0x0006e8                  _strchr
                  0x0005ce                  _strcmp
                  0x00043c                  _strcpy
                  0x000962                  _strcspn
                  0x01c442                  _stricmppgm2ram
                  0x00044c                  _strlen
                  0x01c648                  _strnchr
                  0x0007f2                  _strncpy
                  0x00093e                  _strspn
                  0x0006fa                  _strstr
                  0x000404                  _strtok
                  0x000c2e                  _strtol
                  0x01c5c6                  _strupr
                  0x01c4f4                  _swapl
                  0x01c4da                  _swaps
                  0x000996                  _tolower
                  0x01c250                  _uitoa
                  0x01c2ce                  _ultoa
                  0x027e68                  _uxListRemove
                  0x021630                  _uxQueueMessagesWaiting
                  0x021648                  _uxQueueMessagesWaitingFromISR
                  0x01cc2c                  _uxTaskGetNumberOfTasks
                  0x027d84                  _vListInitialise
                  0x027db6                  _vListInitialiseItem
                  0x027e08                  _vListInsert
                  0x027dc4                  _vListInsertEnd
                  0x027a86                  _vPortEndScheduler
                  0x027aba                  _vPortEnterCritical
                  0x027ace                  _vPortExitCritical
                  0x027634                  _vPortFree
                  0x027698                  _vPortInitialiseBlocks
                  0x028b68                  _vPortYield
                  0x021658                  _vQueueDelete
                  0x01c86e                  _vTaskDelay
                  0x01c7f6                  _vTaskDelayUntil
                  0x01c78a                  _vTaskDelete
                  0x01cb34                  _vTaskEndScheduler
                  0x01cc34                  _vTaskIncrementTick
                  0x01ce72                  _vTaskMissedYield
                  0x01cd4a                  _vTaskPlaceOnEventList
                  0x01d0a4                  _vTaskPriorityDisinherit
                  0x01d02c                  _vTaskPriorityInherit
                  0x01c8aa                  _vTaskPrioritySet
                  0x01ca2c                  _vTaskResume
                  0x01cdf2                  _vTaskSetTimeOutState
                  0x01cb00                  _vTaskStartScheduler
                  0x01c988                  _vTaskSuspend
                  0x01cb4a                  _vTaskSuspendAll
                  0x01ccf0                  _vTaskSwitchContext
                  0x027690                  _xPortGetFreeHeapSize
                  0x027a56                  _xPortStartScheduler
                  0x0212c4                  _xQueueCreateMutex
                  0x021262                  _xQueueGenericCreate
                  0x02147e                  _xQueueGenericReceive
                  0x0211d4                  _xQueueGenericReset
                  0x02132a                  _xQueueGenericSend
                  0x021414                  _xQueueGenericSendFromISR
                  0x0217f8                  _xQueueIsQueueEmptyFromISR
                  0x02183c                  _xQueueIsQueueFullFromISR
                  0x0215c4                  _xQueueReceiveFromISR
                  0x01ce06                  _xTaskCheckForTimeOut
                  0x01c68e                  _xTaskGenericCreate
                  0x01d020                  _xTaskGetCurrentTaskHandle
                  0x01cc08                  _xTaskGetTickCount
                  0x01cc1c                  _xTaskGetTickCountFromISR
                  0x01c9fa                  _xTaskIsTaskSuspended
                  0x01cd82                  _xTaskRemoveFromEventList
                  0x01cb56                  _xTaskResumeAll
                  0x01ca8e                  _xTaskResumeFromISR
                  0x0005a0                  sprintf.io:_prout
                  0x01ce7c                  tasks.o:_prvIdleTask
                  0x0289cc                  x_analog_in-pro.o:_An_i_attach
                  0x028990                  x_analog_in-pro.o:_An_i_ctor
                  0x0289a6                  x_analog_in-pro.o:_An_i_dtor
                  0x0289ee                  x_analog_in-pro.o:_An_i_getan_i
                  0x026f12                  x_digital_io-pro.o:_Dig_io_attach
                  0x026e3a                  x_digital_io-pro.o:_Dig_io_ctor
                  0x026ed4                  x_digital_io-pro.o:_Dig_io_dtor
                  0x026ff6                  x_digital_io-pro.o:_Dig_io_get_dig_io
                  0x026f52                  x_digital_io-pro.o:_Dig_io_set_dig_io
                  0x02318e                  x_groveboard-pro.o:_Board_ctor
                  0x001312                  xisdst.o:__Tls_dtor_rules
                  0x001316                  xisdst.o:__Tls_setupx_rules

Memory Configuration

Name             Origin             Length             Attributes
data             0x000800           0x018000           a !xr
reset            0x000000           0x000004  
ivt              0x000004           0x0000fc  
aivt             0x000104           0x0000fc  
program          0x000200           0x02a9f8           xr
CONFIG4          0x02abf8           0x000002  
CONFIG3          0x02abfa           0x000002  
CONFIG2          0x02abfc           0x000002  
CONFIG1          0x02abfe           0x000002  
*default*        0x000000           0xffffffff  

Linker script and memory map

LOAD Announce.o
LOAD ARCFOUR.o
LOAD ARP.o
LOAD ARPlib.o
LOAD BigInt.o
LOAD BigInt_helper.o
LOAD Delay.o
LOAD DHCP.o
LOAD DHCPs.o
LOAD DNS.o
LOAD DNSs.o
LOAD DynDNS.o
LOAD ENCX24J600.o
LOAD FTP.o
LOAD FTPlib.o
LOAD Hashes.o
LOAD heap_2.o
LOAD Helpers.o
LOAD HTTP2.o
LOAD HTTPApp.o
LOAD HWInit.o
LOAD HWlib.o
LOAD ICMP.o
LOAD INTlib.o
LOAD IP.o
LOAD ISRs.o
LOAD list.o
LOAD Main.o
LOAD MPFS2.o
LOAD MPFSImg2.o
LOAD NBNS.o
LOAD NETlib.o
LOAD port.o
LOAD portasm_PIC24.o
LOAD queue.o
LOAD Random.o
LOAD Reboot.o
LOAD Regs.o
LOAD RSA.o
LOAD RTCClib.o
LOAD SMTP.o
LOAD SMTPlib.o
LOAD SNTP.o
LOAD SPIFlash.o
LOAD SSL.o
LOAD StackTsk.o
LOAD taskFlyport.o
LOAD tasks.o
LOAD TCP.o
LOAD TCPIP_Utils.o
LOAD TCPlib.o
LOAD Tick.o
LOAD UDP.o
LOAD UDPlib.o
LOAD WFConnectionAlgorithm.o
LOAD WFConnectionManager.o
LOAD WFConnectionProfile.o
LOAD WFDataTxRx.o
LOAD WFDebugStrings.o
LOAD WFDriverCom.o
LOAD WFDriverCom_24G.o
LOAD WFDriverRaw.o
LOAD WFDriverRaw_24G.o
LOAD WFEventHandler.o
LOAD WFInit.o
LOAD WFMac.o
LOAD WFMac_24G.o
LOAD WFMgmtMsg.o
LOAD WFMgmtMsg_24G.o
LOAD WFParamMsg.o
LOAD WFParamMsg_24G.o
LOAD WFPowerSave.o
LOAD WFScan.o
LOAD WFTxPower.o
LOAD WF_Config.o
LOAD WF_Eint.o
LOAD WF_Events.o
LOAD WF_Spi.o
LOAD WF_Utils.o
LOAD x_analog_in-pro.o
LOAD x_digital_io-pro.o
LOAD x_groveboard-pro.o
LOAD x_grovelib-pro.o
LOAD x_heap.o
LOAD x_i2c_devices-pro.o
LOAD x_input_capture.o
LOAD ZeroconfHelper.o
LOAD ZeroconfLinkLocal.o
LOAD ZeroconfMulticastDNS.o
LOAD c:/program files (x86)/microchip/mplab c30/bin/bin/../../lib/PIC24F\libpPIC24Fxxx-coff.a
                    0x2abf8                  __CONFIG4 = 0x2abf8
                    0x2abfa                  __CONFIG3 = 0x2abfa
                    0x2abfc                  __CONFIG2 = 0x2abfc
                    0x2abfe                  __CONFIG1 = 0x2abfe
                    0x0004                  __IVT_BASE = 0x4
                    0x0104                  __AIVT_BASE = 0x104
                    0x0800                  __DATA_BASE = 0x800
                    0x0200                  __CODE_BASE = 0x200

.reset            0x000000          0x4
                  0x000000          0x2 SHORT 0x200 <code 339> (__reset)
                  0x000001          0x2 SHORT 0x4
                  0x000002          0x2 SHORT 0x0 ((<code 339> (__reset) >> 0x10) & 0x7f)
                  0x000003          0x2 SHORT 0x0

.text             0x000200       0x22de
 *(.init)
 .init            0x000200         0x2e c:/program files (x86)/microchip/mplab c30/bin/bin/../../lib\libpic30-coff.a(crt0_extended.o)
                  0x000200                  _resetPRI
                  0x000200                  _reset
                  0x000222                  _psv_init
 .init            0x00022e         0x9a c:/program files (x86)/microchip/mplab c30/bin/bin/../../lib\libpic30-coff.a(data_init_extended.o)
                  0x00022e                  _data_init
                  0x00022e                  _data_init_extended
 *(.user_init)
 *(.handle)
 .handle          0x0002c8         0xd4 jump_table
 *(.libc)
 .libc            0x00039c         0x5a c:/program files (x86)/microchip/mplab c30/bin/bin/../../lib\libpic30-coff.a(flash_helper.o)
                  0x00039c                  _flash_helper1
                  0x0003b8                  _flash_helper2
                  0x0003bc                  _flash_helper3
                  0x0003e0                  _flash_helper4
                  0x0003e2                  _flash_helper5
                  0x0003f0                  _flash_helper6
 .libc            0x0003f6          0xe c:/program files (x86)/microchip/mplab c30/bin/bin/../../lib\libc-coff.a(memset.o)
                  0x0003f6                  memset
 .libc            0x000404         0x38 c:/program files (x86)/microchip/mplab c30/bin/bin/../../lib\libc-coff.a(strtok.o)
                  0x000404                  strtok
 .libc            0x00043c         0x10 c:/program files (x86)/microchip/mplab c30/bin/bin/../../lib\libc-coff.a(strcpy.o)
                  0x00043c                  strcpy
 .libc            0x00044c          0xe c:/program files (x86)/microchip/mplab c30/bin/bin/../../lib\libc-coff.a(strlen.o)
                  0x00044c                  strlen
 .libc            0x00045a         0x1e c:/program files (x86)/microchip/mplab c30/bin/bin/../../lib\libc-coff.a(strcat.o)
                  0x00045a                  strcat
 .libc            0x000478        0x128 c:/program files (x86)/microchip/mplab c30/bin/bin/../../lib\libc-coff.a(xstoul.o)
                  0x000478                  _Stoul
 .libc            0x0005a0         0x2e c:/program files (x86)/microchip/mplab c30/bin/bin/../../lib\libc-coff.a(sprintf.io)
                  0x0005a0                  sprintf.io:_prout
                  0x0005ac                  _isprintf
 .libc            0x0005ce         0x24 c:/program files (x86)/microchip/mplab c30/bin/bin/../../lib\libc-coff.a(strcmp.o)
                  0x0005ce                  strcmp
 .libc            0x0005f2         0xaa c:/program files (x86)/microchip/mplab c30/bin/bin/../../lib\libc-coff.a(rand.o)
                  0x0005f2                  rand
 .libc            0x00069c         0x22 c:/program files (x86)/microchip/mplab c30/bin/bin/../../lib\libc-coff.a(srand.o)
                  0x00069c                  srand
 .libc            0x0006be         0x1c c:/program files (x86)/microchip/mplab c30/bin/bin/../../lib\libc-coff.a(memcmp.o)
                  0x0006be                  memcmp
 .libc            0x0006da          0xe c:/program files (x86)/microchip/mplab c30/bin/bin/../../lib\libc-coff.a(memcpy.o)
                  0x0006da                  memcpy
 .libc            0x0006e8         0x12 c:/program files (x86)/microchip/mplab c30/bin/bin/../../lib\libc-coff.a(strchr.o)
                  0x0006e8                  strchr
 .libc            0x0006fa         0x28 c:/program files (x86)/microchip/mplab c30/bin/bin/../../lib\libc-coff.a(strstr.o)
                  0x0006fa                  strstr
 .libc            0x000722         0xa6 c:/program files (x86)/microchip/mplab c30/bin/bin/../../lib\libc-coff.a(localtim.o)
                  0x000722                  _Tzoff
                  0x0007b4                  localtime
 .libc            0x0007c8         0x2a c:/program files (x86)/microchip/mplab c30/bin/bin/../../lib\libc-coff.a(asctime.o)
                  0x0007c8                  _Getptimes
                  0x0007d4                  asctime
 .libc            0x0007f2         0x22 c:/program files (x86)/microchip/mplab c30/bin/bin/../../lib\libc-coff.a(strncpy.o)
                  0x0007f2                  strncpy
 .libc            0x000814         0x68 c:/program files (x86)/microchip/mplab c30/bin/bin/../../lib\libc-coff.a(free.o)
                  0x000814                  free
 .libc            0x00087c         0xa4 c:/program files (x86)/microchip/mplab c30/bin/bin/../../lib\libc-coff.a(malloc.o)
                  0x00087c                  malloc
 .libc            0x000920         0x1e c:/program files (x86)/microchip/mplab c30/bin/bin/../../lib\libc-coff.a(calloc.o)
                  0x000920                  calloc
 .libc            0x00093e         0x24 c:/program files (x86)/microchip/mplab c30/bin/bin/../../lib\libc-coff.a(strspn.o)
                  0x00093e                  strspn
 .libc            0x000962         0x24 c:/program files (x86)/microchip/mplab c30/bin/bin/../../lib\libc-coff.a(strcspn.o)
                  0x000962                  strcspn
 .libc            0x000986         0x10 c:/program files (x86)/microchip/mplab c30/bin/bin/../../lib\libc-coff.a(isspace.o)
                  0x000986                  isspace
 .libc            0x000996          0xe c:/program files (x86)/microchip/mplab c30/bin/bin/../../lib\libc-coff.a(tolower.o)
                  0x000996                  tolower
 .libc            0x0009a4         0x14 c:/program files (x86)/microchip/mplab c30/bin/bin/../../lib\libc-coff.a(memchr.o)
                  0x0009a4                  memchr
 .libc            0x0009b8          0xc c:/program files (x86)/microchip/mplab c30/bin/bin/../../lib\libc-coff.a(errno.o)
                  0x0009b8                  _Geterrno
 .libc            0x0009c4        0x172 c:/program files (x86)/microchip/mplab c30/bin/bin/../../lib\libc-coff.a(xprintf.io)
                  0x0009c4                  __iPrintf
 .libc            0x000b36         0xb8 c:/program files (x86)/microchip/mplab c30/bin/bin/../../lib\libc-coff.a(xgetzone.o)
                  0x000b36                  _Getzone
 .libc            0x000bee         0x40 c:/program files (x86)/microchip/mplab c30/bin/bin/../../lib\libc-coff.a(xgettime.o)
                  0x000bee                  _Gettime
 .libc            0x000c2e         0x92 c:/program files (x86)/microchip/mplab c30/bin/bin/../../lib\libc-coff.a(strtol.o)
                  0x000c2e                  strtol
 .libc            0x000cc0        0x12e c:/program files (x86)/microchip/mplab c30/bin/bin/../../lib\libc-coff.a(xttotm.o)
                  0x000cc0                  _Daysto
                  0x000cf8                  _Ttotm
 .libc            0x000dee         0xde c:/program files (x86)/microchip/mplab c30/bin/bin/../../lib\libc-coff.a(xstrftim.o)
                  0x000dee                  _CStrftime
 .libc            0x000ecc          0xe c:/program files (x86)/microchip/mplab c30/bin/bin/../../lib\libc-coff.a(xgetmem.o)
                  0x000ecc                  _Getmem
 .libc            0x000eda          0xa c:/program files (x86)/microchip/mplab c30/bin/bin/../../lib\libc-coff.a(xvacopy.o)
                  0x000eda                  _Vacopy
 .libc            0x000ee4        0x286 c:/program files (x86)/microchip/mplab c30/bin/bin/../../lib\libc-coff.a(xputfld.io)
                  0x000ee4                  __iPutfld
 .libc            0x00116a        0x194 c:/program files (x86)/microchip/mplab c30/bin/bin/../../lib\libc-coff.a(xputtxt.o)
                  0x00116a                  _Puttxt
 .libc            0x0012fe         0x14 c:/program files (x86)/microchip/mplab c30/bin/bin/../../lib\libc-coff.a(isalpha.o)
                  0x0012fe                  isalpha
 .libc            0x001312        0x122 c:/program files (x86)/microchip/mplab c30/bin/bin/../../lib\libc-coff.a(xisdst.o)
                  0x001312                  xisdst.o:__Tls_dtor_rules
                  0x001316                  xisdst.o:__Tls_setupx_rules
                  0x00132c                  _Isdst
 .libc            0x001434        0x5dc c:/program files (x86)/microchip/mplab c30/bin/bin/../../lib\libc-coff.a(xgentime.o)
                  0x001632                  _Gentime
 .libc            0x001a10        0x312 c:/program files (x86)/microchip/mplab c30/bin/bin/../../lib\libc-coff.a(xlitob.o)
                  0x001a10                  _Litob
 .libc            0x001d22         0x1a c:/program files (x86)/microchip/mplab c30/bin/bin/../../lib\libc-coff.a(xatexit.o)
                  0x001d22                  _Atexit
 .libc            0x001d3c        0x11e c:/program files (x86)/microchip/mplab c30/bin/bin/../../lib\libc-coff.a(xgetdst.o)
                  0x001d60                  _Getdst
 .libc            0x001e5a          0xc c:/program files (x86)/microchip/mplab c30/bin/bin/../../lib\libm-coff.a(mulsi3.o)
                  0x001e5a                  __mulp32peds3
                  0x001e5a                  __mulsi3
                  0x001e5a                  __mulp32eds3
 .libc            0x001e66          0x2 c:/program files (x86)/microchip/mplab c30/bin/bin/../../lib\libpic30-coff.a(getenv.o)
                  0x001e66                  getenv
 .libc            0x001e68         0x2c c:/program files (x86)/microchip/mplab c30/bin/bin/../../lib\libpic30-coff.a(sbrk.o)
                  0x001e68                  sbrk
 .libc            0x001e94         0x1e c:/program files (x86)/microchip/mplab c30/bin/bin/../../lib\libpic30-coff.a(brk.o)
                  0x001e94                  brk
 *(.libm)
 .libm            0x001eb2         0x20 c:/program files (x86)/microchip/mplab c30/bin/bin/../../lib\libm-coff.a(udivsi3.o)
                  0x001eb2                  __udivsi3
 .libm            0x001ed2         0x84 c:/program files (x86)/microchip/mplab c30/bin/bin/../../lib\libm-coff.a(divsf3.o)
                  0x001ed2                  __divsf3
 .libm            0x001f56          0x4 c:/program files (x86)/microchip/mplab c30/bin/bin/../../lib\libm-coff.a(fgtge.o)
                  0x001f56                  __gesf2
                  0x001f56                  __gtsf2
 .libm            0x001f5a         0x36 c:/program files (x86)/microchip/mplab c30/bin/bin/../../lib\libm-coff.a(fixunssfsi.o)
                  0x001f5a                  __fixunssfsi
 .libm            0x001f90         0x56 c:/program files (x86)/microchip/mplab c30/bin/bin/../../lib\libm-coff.a(floatsisf.o)
                  0x001f90                  __floatsisf
 .libm            0x001fe6         0xbc c:/program files (x86)/microchip/mplab c30/bin/bin/../../lib\libm-coff.a(addsf3.o)
                  0x001fe6                  __subsf3
                  0x001fe8                  __addsf3
 .libm            0x0020a2         0x68 c:/program files (x86)/microchip/mplab c30/bin/bin/../../lib\libm-coff.a(mulsf3.o)
                  0x0020a2                  __mulsf3
 .libm            0x00210a        0x216 c:/program files (x86)/microchip/mplab c30/bin/bin/../../lib\libm-coff.a(divmoddi3.o)
                  0x002130                  __udivmoddi3
                  0x0021fe                  __udivdi3
                  0x00220c                  __umoddi3
                  0x002214                  __divdi3
                  0x00224e                  __moddi3
 .libm            0x002320         0x5c c:/program files (x86)/microchip/mplab c30/bin/bin/../../lib\libm-coff.a(muldi3.o)
                  0x002320                  __muldi3
 .libm            0x00237c         0x1e c:/program files (x86)/microchip/mplab c30/bin/bin/../../lib\libm-coff.a(divsi3.o)
                  0x00237c                  __divsi3
 .libm            0x00239a         0x1e c:/program files (x86)/microchip/mplab c30/bin/bin/../../lib\libm-coff.a(modsi3.o)
                  0x00239a                  __modsi3
 .libm            0x0023b8          0x6 c:/program files (x86)/microchip/mplab c30/bin/bin/../../lib\libm-coff.a(umodsi3.o)
                  0x0023b8                  __umodsi3
 .libm            0x0023be         0x10 c:/program files (x86)/microchip/mplab c30/bin/bin/../../lib\libm-coff.a(funpack2.o)
                  0x0023be                  _funpack2
 .libm            0x0023ce         0x20 c:/program files (x86)/microchip/mplab c30/bin/bin/../../lib\libm-coff.a(futil.o)
                  0x0023ce                  _fPropagateNaN
                  0x0023e0                  _fbopExit
                  0x0023e8                  _fbopReturnNaN
 .libm            0x0023ee         0x4c c:/program files (x86)/microchip/mplab c30/bin/bin/../../lib\libm-coff.a(fpack.o)
                  0x0023ee                  _fpack
 .libm            0x00243a         0x36 c:/program files (x86)/microchip/mplab c30/bin/bin/../../lib\libm-coff.a(fcompare.o)
                  0x00243a                  _fcompare
 .libm            0x002470         0x2a c:/program files (x86)/microchip/mplab c30/bin/bin/../../lib\libm-coff.a(funpack.o)
                  0x002470                  _funpack
 .libm            0x00249a         0x44 c:/program files (x86)/microchip/mplab c30/bin/bin/../../lib\libm-coff.a(umuldi3.o)
                  0x00249a                  __umuldi3
 *(.libdsp)
 *(.lib*)

usercode
 *(usercode)

__CONFIG4
 *(__CONFIG4.sec)

__CONFIG3
 *(__CONFIG3.sec)

__CONFIG2         0x02abfc          0x2
 *(__CONFIG2.sec)
 __CONFIG2.sec    0x02abfc          0x2 Main.o

__CONFIG1         0x02abfe          0x2
 *(__CONFIG1.sec)
 __CONFIG1.sec    0x02abfe          0x2 Main.o

.comment
 *(.comment)

.debug_info
 *(.debug_info)
 *(.gnu.linkonce.wi.*)

.debug_abbrev
 *(.debug_abbrev)

.debug_line
 *(.debug_line)

.debug_frame
 *(.debug_frame)

.debug_str
 *(.debug_str)

.debug_loc
 *(.debug_loc)

.debug_macinfo
 *(.debug_macinfo)

.debug_pubnames
 *(.debug_pubnames)

.debug_ranges
 *(.debug_ranges)

.debug_aranges
 *(.debug_aranges)

.ivt              0x000004         0xfc
                  0x000004          0x4 LONG 0x273fa DEFINED (__ReservedTrap0)?<code 339> (__ReservedTrap0):<code 339> (__DefaultInterrupt)
                  0x000006          0x4 LONG 0x27424 DEFINED (__OscillatorFail)?<code 339> (__OscillatorFail):<code 339> (__DefaultInterrupt)
                  0x000008          0x4 LONG 0x2744e DEFINED (__AddressError)?<code 339> (__AddressError):<code 339> (__DefaultInterrupt)
                  0x00000a          0x4 LONG 0x27478 DEFINED (__StackError)?<code 339> (__StackError):<code 339> (__DefaultInterrupt)
                  0x00000c          0x4 LONG 0x274a2 DEFINED (__MathError)?<code 339> (__MathError):<code 339> (__DefaultInterrupt)
                  0x00000e          0x4 LONG 0x273fa DEFINED (__ReservedTrap5)?<code 339> (__ReservedTrap5):<code 339> (__DefaultInterrupt)
                  0x000010          0x4 LONG 0x273fa DEFINED (__ReservedTrap6)?<code 339> (__ReservedTrap6):<code 339> (__DefaultInterrupt)
                  0x000012          0x4 LONG 0x273fa DEFINED (__ReservedTrap7)?<code 339> (__ReservedTrap7):<code 339> (__DefaultInterrupt)
                  0x000014          0x4 LONG 0x273fa DEFINED (__INT0Interrupt)?<code 339> (__INT0Interrupt):<code 339> (__DefaultInterrupt)
                  0x000016          0x4 LONG 0x23640 DEFINED (__IC1Interrupt)?<code 339> (__IC1Interrupt):<code 339> (__DefaultInterrupt)
                  0x000018          0x4 LONG 0x273fa DEFINED (__OC1Interrupt)?<code 339> (__OC1Interrupt):<code 339> (__DefaultInterrupt)
                  0x00001a          0x4 LONG 0x27d6c DEFINED (__T1Interrupt)?<code 339> (__T1Interrupt):<code 339> (__DefaultInterrupt)
                  0x00001c          0x4 LONG 0x273fa DEFINED (__Interrupt4)?<code 339> (__Interrupt4):<code 339> (__DefaultInterrupt)
                  0x00001e          0x4 LONG 0x2367a DEFINED (__IC2Interrupt)?<code 339> (__IC2Interrupt):<code 339> (__DefaultInterrupt)
                  0x000020          0x4 LONG 0x273fa DEFINED (__OC2Interrupt)?<code 339> (__OC2Interrupt):<code 339> (__DefaultInterrupt)
                  0x000022          0x4 LONG 0x273fa DEFINED (__T2Interrupt)?<code 339> (__T2Interrupt):<code 339> (__DefaultInterrupt)
                  0x000024          0x4 LONG 0x273fa DEFINED (__T3Interrupt)?<code 339> (__T3Interrupt):<code 339> (__DefaultInterrupt)
                  0x000026          0x4 LONG 0x273fa DEFINED (__SPI1ErrInterrupt)?<code 339> (__SPI1ErrInterrupt):<code 339> (__DefaultInterrupt)
                  0x000028          0x4 LONG 0x273fa DEFINED (__SPI1Interrupt)?<code 339> (__SPI1Interrupt):<code 339> (__DefaultInterrupt)
                  0x00002a          0x4 LONG 0x27394 DEFINED (__U1RXInterrupt)?<code 339> (__U1RXInterrupt):<code 339> (__DefaultInterrupt)
                  0x00002c          0x4 LONG 0x273fa DEFINED (__U1TXInterrupt)?<code 339> (__U1TXInterrupt):<code 339> (__DefaultInterrupt)
                  0x00002e          0x4 LONG 0x10920 DEFINED (__ADC1Interrupt)?<code 339> (__ADC1Interrupt):<code 339> (__DefaultInterrupt)
                  0x000030          0x4 LONG 0x273fa DEFINED (__Interrupt14)?<code 339> (__Interrupt14):<code 339> (__DefaultInterrupt)
                  0x000032          0x4 LONG 0x273fa DEFINED (__Interrupt15)?<code 339> (__Interrupt15):<code 339> (__DefaultInterrupt)
                  0x000034          0x4 LONG 0x273fa DEFINED (__SI2C1Interrupt)?<code 339> (__SI2C1Interrupt):<code 339> (__DefaultInterrupt)
                  0x000036          0x4 LONG 0x273fa DEFINED (__MI2C1Interrupt)?<code 339> (__MI2C1Interrupt):<code 339> (__DefaultInterrupt)
                  0x000038          0x4 LONG 0x273fa DEFINED (__CompInterrupt)?<code 339> (__CompInterrupt):<code 339> (__DefaultInterrupt)
                  0x00003a          0x4 LONG 0x273fa DEFINED (__CNInterrupt)?<code 339> (__CNInterrupt):<code 339> (__DefaultInterrupt)
                  0x00003c          0x4 LONG 0x2880a DEFINED (__INT1Interrupt)?<code 339> (__INT1Interrupt):<code 339> (__DefaultInterrupt)
                  0x00003e          0x4 LONG 0x273fa DEFINED (__Interrupt21)?<code 339> (__Interrupt21):<code 339> (__DefaultInterrupt)
                  0x000040          0x4 LONG 0x273fa DEFINED (__IC7Interrupt)?<code 339> (__IC7Interrupt):<code 339> (__DefaultInterrupt)
                  0x000042          0x4 LONG 0x273fa DEFINED (__IC8Interrupt)?<code 339> (__IC8Interrupt):<code 339> (__DefaultInterrupt)
                  0x000044          0x4 LONG 0x273fa DEFINED (__Interrupt24)?<code 339> (__Interrupt24):<code 339> (__DefaultInterrupt)
                  0x000046          0x4 LONG 0x273fa DEFINED (__OC3Interrupt)?<code 339> (__OC3Interrupt):<code 339> (__DefaultInterrupt)
                  0x000048          0x4 LONG 0x273fa DEFINED (__OC4Interrupt)?<code 339> (__OC4Interrupt):<code 339> (__DefaultInterrupt)
                  0x00004a          0x4 LONG 0x273fa DEFINED (__T4Interrupt)?<code 339> (__T4Interrupt):<code 339> (__DefaultInterrupt)
                  0x00004c          0x4 LONG 0x27ae8 DEFINED (__T5Interrupt)?<code 339> (__T5Interrupt):<code 339> (__DefaultInterrupt)
                  0x00004e          0x4 LONG 0x274cc DEFINED (__INT2Interrupt)?<code 339> (__INT2Interrupt):<code 339> (__DefaultInterrupt)
                  0x000050          0x4 LONG 0x273b4 DEFINED (__U2RXInterrupt)?<code 339> (__U2RXInterrupt):<code 339> (__DefaultInterrupt)
                  0x000052          0x4 LONG 0x273fa DEFINED (__U2TXInterrupt)?<code 339> (__U2TXInterrupt):<code 339> (__DefaultInterrupt)
                  0x000054          0x4 LONG 0x273fa DEFINED (__SPI2ErrInterrupt)?<code 339> (__SPI2ErrInterrupt):<code 339> (__DefaultInterrupt)
                  0x000056          0x4 LONG 0x273fa DEFINED (__SPI2Interrupt)?<code 339> (__SPI2Interrupt):<code 339> (__DefaultInterrupt)
                  0x000058          0x4 LONG 0x273fa DEFINED (__Interrupt34)?<code 339> (__Interrupt34):<code 339> (__DefaultInterrupt)
                  0x00005a          0x4 LONG 0x273fa DEFINED (__Interrupt35)?<code 339> (__Interrupt35):<code 339> (__DefaultInterrupt)
                  0x00005c          0x4 LONG 0x273fa DEFINED (__Interrupt36)?<code 339> (__Interrupt36):<code 339> (__DefaultInterrupt)
                  0x00005e          0x4 LONG 0x23694 DEFINED (__IC3Interrupt)?<code 339> (__IC3Interrupt):<code 339> (__DefaultInterrupt)
                  0x000060          0x4 LONG 0x236ce DEFINED (__IC4Interrupt)?<code 339> (__IC4Interrupt):<code 339> (__DefaultInterrupt)
                  0x000062          0x4 LONG 0x236e8 DEFINED (__IC5Interrupt)?<code 339> (__IC5Interrupt):<code 339> (__DefaultInterrupt)
                  0x000064          0x4 LONG 0x23722 DEFINED (__IC6Interrupt)?<code 339> (__IC6Interrupt):<code 339> (__DefaultInterrupt)
                  0x000066          0x4 LONG 0x273fa DEFINED (__OC5Interrupt)?<code 339> (__OC5Interrupt):<code 339> (__DefaultInterrupt)
                  0x000068          0x4 LONG 0x273fa DEFINED (__OC6Interrupt)?<code 339> (__OC6Interrupt):<code 339> (__DefaultInterrupt)
                  0x00006a          0x4 LONG 0x273fa DEFINED (__OC7Interrupt)?<code 339> (__OC7Interrupt):<code 339> (__DefaultInterrupt)
                  0x00006c          0x4 LONG 0x273fa DEFINED (__OC8Interrupt)?<code 339> (__OC8Interrupt):<code 339> (__DefaultInterrupt)
                  0x00006e          0x4 LONG 0x273fa DEFINED (__PMPInterrupt)?<code 339> (__PMPInterrupt):<code 339> (__DefaultInterrupt)
                  0x000070          0x4 LONG 0x273fa DEFINED (__Interrupt46)?<code 339> (__Interrupt46):<code 339> (__DefaultInterrupt)
                  0x000072          0x4 LONG 0x273fa DEFINED (__Interrupt47)?<code 339> (__Interrupt47):<code 339> (__DefaultInterrupt)
                  0x000074          0x4 LONG 0x273fa DEFINED (__Interrupt48)?<code 339> (__Interrupt48):<code 339> (__DefaultInterrupt)
                  0x000076          0x4 LONG 0x273fa DEFINED (__SI2C2Interrupt)?<code 339> (__SI2C2Interrupt):<code 339> (__DefaultInterrupt)
                  0x000078          0x4 LONG 0x273fa DEFINED (__MI2C2Interrupt)?<code 339> (__MI2C2Interrupt):<code 339> (__DefaultInterrupt)
                  0x00007a          0x4 LONG 0x273fa DEFINED (__Interrupt51)?<code 339> (__Interrupt51):<code 339> (__DefaultInterrupt)
                  0x00007c          0x4 LONG 0x273fa DEFINED (__Interrupt52)?<code 339> (__Interrupt52):<code 339> (__DefaultInterrupt)
                  0x00007e          0x4 LONG 0x274f4 DEFINED (__INT3Interrupt)?<code 339> (__INT3Interrupt):<code 339> (__DefaultInterrupt)
                  0x000080          0x4 LONG 0x2751c DEFINED (__INT4Interrupt)?<code 339> (__INT4Interrupt):<code 339> (__DefaultInterrupt)
                  0x000082          0x4 LONG 0x273fa DEFINED (__Interrupt55)?<code 339> (__Interrupt55):<code 339> (__DefaultInterrupt)
                  0x000084          0x4 LONG 0x273fa DEFINED (__Interrupt56)?<code 339> (__Interrupt56):<code 339> (__DefaultInterrupt)
                  0x000086          0x4 LONG 0x273fa DEFINED (__Interrupt57)?<code 339> (__Interrupt57):<code 339> (__DefaultInterrupt)
                  0x000088          0x4 LONG 0x273fa DEFINED (__Interrupt58)?<code 339> (__Interrupt58):<code 339> (__DefaultInterrupt)
                  0x00008a          0x4 LONG 0x273fa DEFINED (__Interrupt59)?<code 339> (__Interrupt59):<code 339> (__DefaultInterrupt)
                  0x00008c          0x4 LONG 0x273fa DEFINED (__Interrupt60)?<code 339> (__Interrupt60):<code 339> (__DefaultInterrupt)
                  0x00008e          0x4 LONG 0x273fa DEFINED (__Interrupt61)?<code 339> (__Interrupt61):<code 339> (__DefaultInterrupt)
                  0x000090          0x4 LONG 0x26000 DEFINED (__RTCCInterrupt)?<code 339> (__RTCCInterrupt):<code 339> (__DefaultInterrupt)
                  0x000092          0x4 LONG 0x273fa DEFINED (__Interrupt63)?<code 339> (__Interrupt63):<code 339> (__DefaultInterrupt)
                  0x000094          0x4 LONG 0x273fa DEFINED (__Interrupt64)?<code 339> (__Interrupt64):<code 339> (__DefaultInterrupt)
                  0x000096          0x4 LONG 0x273fa DEFINED (__U1ErrInterrupt)?<code 339> (__U1ErrInterrupt):<code 339> (__DefaultInterrupt)
                  0x000098          0x4 LONG 0x273fa DEFINED (__U2ErrInterrupt)?<code 339> (__U2ErrInterrupt):<code 339> (__DefaultInterrupt)
                  0x00009a          0x4 LONG 0x273fa DEFINED (__CRCInterrupt)?<code 339> (__CRCInterrupt):<code 339> (__DefaultInterrupt)
                  0x00009c          0x4 LONG 0x273fa DEFINED (__Interrupt68)?<code 339> (__Interrupt68):<code 339> (__DefaultInterrupt)
                  0x00009e          0x4 LONG 0x273fa DEFINED (__Interrupt69)?<code 339> (__Interrupt69):<code 339> (__DefaultInterrupt)
                  0x0000a0          0x4 LONG 0x273fa DEFINED (__Interrupt70)?<code 339> (__Interrupt70):<code 339> (__DefaultInterrupt)
                  0x0000a2          0x4 LONG 0x273fa DEFINED (__Interrupt71)?<code 339> (__Interrupt71):<code 339> (__DefaultInterrupt)
                  0x0000a4          0x4 LONG 0x273fa DEFINED (__LVDInterrupt)?<code 339> (__LVDInterrupt):<code 339> (__DefaultInterrupt)
                  0x0000a6          0x4 LONG 0x273fa DEFINED (__Interrupt73)?<code 339> (__Interrupt73):<code 339> (__DefaultInterrupt)
                  0x0000a8          0x4 LONG 0x273fa DEFINED (__Interrupt74)?<code 339> (__Interrupt74):<code 339> (__DefaultInterrupt)
                  0x0000aa          0x4 LONG 0x273fa DEFINED (__Interrupt75)?<code 339> (__Interrupt75):<code 339> (__DefaultInterrupt)
                  0x0000ac          0x4 LONG 0x273fa DEFINED (__Interrupt76)?<code 339> (__Interrupt76):<code 339> (__DefaultInterrupt)
                  0x0000ae          0x4 LONG 0x273fa DEFINED (__CTMUInterrupt)?<code 339> (__CTMUInterrupt):<code 339> (__DefaultInterrupt)
                  0x0000b0          0x4 LONG 0x273fa DEFINED (__Interrupt78)?<code 339> (__Interrupt78):<code 339> (__DefaultInterrupt)
                  0x0000b2          0x4 LONG 0x273fa DEFINED (__Interrupt79)?<code 339> (__Interrupt79):<code 339> (__DefaultInterrupt)
                  0x0000b4          0x4 LONG 0x273fa DEFINED (__Interrupt80)?<code 339> (__Interrupt80):<code 339> (__DefaultInterrupt)
                  0x0000b6          0x4 LONG 0x273fa DEFINED (__U3ErrInterrupt)?<code 339> (__U3ErrInterrupt):<code 339> (__DefaultInterrupt)
                  0x0000b8          0x4 LONG 0x273d4 DEFINED (__U3RXInterrupt)?<code 339> (__U3RXInterrupt):<code 339> (__DefaultInterrupt)
                  0x0000ba          0x4 LONG 0x273fa DEFINED (__U3TXInterrupt)?<code 339> (__U3TXInterrupt):<code 339> (__DefaultInterrupt)
                  0x0000bc          0x4 LONG 0x273fa DEFINED (__SI2C3Interrupt)?<code 339> (__SI2C3Interrupt):<code 339> (__DefaultInterrupt)
                  0x0000be          0x4 LONG 0x273fa DEFINED (__MI2C3Interrupt)?<code 339> (__MI2C3Interrupt):<code 339> (__DefaultInterrupt)
                  0x0000c0          0x4 LONG 0x273fa DEFINED (__USB1Interrupt)?<code 339> (__USB1Interrupt):<code 339> (__DefaultInterrupt)
                  0x0000c2          0x4 LONG 0x273fa DEFINED (__U4ErrInterrupt)?<code 339> (__U4ErrInterrupt):<code 339> (__DefaultInterrupt)
                  0x0000c4          0x4 LONG 0x273f4 DEFINED (__U4RXInterrupt)?<code 339> (__U4RXInterrupt):<code 339> (__DefaultInterrupt)
                  0x0000c6          0x4 LONG 0x273fa DEFINED (__U4TXInterrupt)?<code 339> (__U4TXInterrupt):<code 339> (__DefaultInterrupt)
                  0x0000c8          0x4 LONG 0x273fa DEFINED (__SPI3ErrInterrupt)?<code 339> (__SPI3ErrInterrupt):<code 339> (__DefaultInterrupt)
                  0x0000ca          0x4 LONG 0x273fa DEFINED (__SPI3Interrupt)?<code 339> (__SPI3Interrupt):<code 339> (__DefaultInterrupt)
                  0x0000cc          0x4 LONG 0x273fa DEFINED (__OC9Interrupt)?<code 339> (__OC9Interrupt):<code 339> (__DefaultInterrupt)
                  0x0000ce          0x4 LONG 0x273fa DEFINED (__IC9Interrupt)?<code 339> (__IC9Interrupt):<code 339> (__DefaultInterrupt)
                  0x0000d0          0x4 LONG 0x273fa DEFINED (__Interrupt94)?<code 339> (__Interrupt94):<code 339> (__DefaultInterrupt)
                  0x0000d2          0x4 LONG 0x273fa DEFINED (__Interrupt95)?<code 339> (__Interrupt95):<code 339> (__DefaultInterrupt)
                  0x0000d4          0x4 LONG 0x273fa DEFINED (__Interrupt96)?<code 339> (__Interrupt96):<code 339> (__DefaultInterrupt)
                  0x0000d6          0x4 LONG 0x273fa DEFINED (__Interrupt97)?<code 339> (__Interrupt97):<code 339> (__DefaultInterrupt)
                  0x0000d8          0x4 LONG 0x273fa DEFINED (__Interrupt98)?<code 339> (__Interrupt98):<code 339> (__DefaultInterrupt)
                  0x0000da          0x4 LONG 0x273fa DEFINED (__Interrupt99)?<code 339> (__Interrupt99):<code 339> (__DefaultInterrupt)
                  0x0000dc          0x4 LONG 0x273fa DEFINED (__Interrupt100)?<code 339> (__Interrupt100):<code 339> (__DefaultInterrupt)
                  0x0000de          0x4 LONG 0x273fa DEFINED (__Interrupt101)?<code 339> (__Interrupt101):<code 339> (__DefaultInterrupt)
                  0x0000e0          0x4 LONG 0x273fa DEFINED (__Interrupt102)?<code 339> (__Interrupt102):<code 339> (__DefaultInterrupt)
                  0x0000e2          0x4 LONG 0x273fa DEFINED (__Interrupt103)?<code 339> (__Interrupt103):<code 339> (__DefaultInterrupt)
                  0x0000e4          0x4 LONG 0x273fa DEFINED (__Interrupt104)?<code 339> (__Interrupt104):<code 339> (__DefaultInterrupt)
                  0x0000e6          0x4 LONG 0x273fa DEFINED (__Interrupt105)?<code 339> (__Interrupt105):<code 339> (__DefaultInterrupt)
                  0x0000e8          0x4 LONG 0x273fa DEFINED (__Interrupt106)?<code 339> (__Interrupt106):<code 339> (__DefaultInterrupt)
                  0x0000ea          0x4 LONG 0x273fa DEFINED (__Interrupt107)?<code 339> (__Interrupt107):<code 339> (__DefaultInterrupt)
                  0x0000ec          0x4 LONG 0x273fa DEFINED (__Interrupt108)?<code 339> (__Interrupt108):<code 339> (__DefaultInterrupt)
                  0x0000ee          0x4 LONG 0x273fa DEFINED (__Interrupt109)?<code 339> (__Interrupt109):<code 339> (__DefaultInterrupt)
                  0x0000f0          0x4 LONG 0x273fa DEFINED (__Interrupt110)?<code 339> (__Interrupt110):<code 339> (__DefaultInterrupt)
                  0x0000f2          0x4 LONG 0x273fa DEFINED (__Interrupt111)?<code 339> (__Interrupt111):<code 339> (__DefaultInterrupt)
                  0x0000f4          0x4 LONG 0x273fa DEFINED (__Interrupt112)?<code 339> (__Interrupt112):<code 339> (__DefaultInterrupt)
                  0x0000f6          0x4 LONG 0x273fa DEFINED (__Interrupt113)?<code 339> (__Interrupt113):<code 339> (__DefaultInterrupt)
                  0x0000f8          0x4 LONG 0x273fa DEFINED (__Interrupt114)?<code 339> (__Interrupt114):<code 339> (__DefaultInterrupt)
                  0x0000fa          0x4 LONG 0x273fa DEFINED (__Interrupt115)?<code 339> (__Interrupt115):<code 339> (__DefaultInterrupt)
                  0x0000fc          0x4 LONG 0x273fa DEFINED (__Interrupt116)?<code 339> (__Interrupt116):<code 339> (__DefaultInterrupt)
                  0x0000fe          0x4 LONG 0x273fa DEFINED (__Interrupt117)?<code 339> (__Interrupt117):<code 339> (__DefaultInterrupt)

.aivt             0x000104         0xfc
                  0x000104          0x4 LONG 0x273fa DEFINED (__AltReservedTrap0)?<code 339> (__AltReservedTrap0):DEFINED (__ReservedTrap0)?<code 339> (__ReservedTrap0):<code 339> (__DefaultInterrupt)
                  0x000106          0x4 LONG 0x27424 DEFINED (__AltOscillatorFail)?<code 339> (__AltOscillatorFail):DEFINED (__OscillatorFail)?<code 339> (__OscillatorFail):<code 339> (__DefaultInterrupt)
                  0x000108          0x4 LONG 0x2744e DEFINED (__AltAddressError)?<code 339> (__AltAddressError):DEFINED (__AddressError)?<code 339> (__AddressError):<code 339> (__DefaultInterrupt)
                  0x00010a          0x4 LONG 0x27478 DEFINED (__AltStackError)?<code 339> (__AltStackError):DEFINED (__StackError)?<code 339> (__StackError):<code 339> (__DefaultInterrupt)
                  0x00010c          0x4 LONG 0x274a2 DEFINED (__AltMathError)?<code 339> (__AltMathError):DEFINED (__MathError)?<code 339> (__MathError):<code 339> (__DefaultInterrupt)
                  0x00010e          0x4 LONG 0x273fa DEFINED (__AltReservedTrap5)?<code 339> (__AltReservedTrap5):DEFINED (__ReservedTrap5)?<code 339> (__ReservedTrap5):<code 339> (__DefaultInterrupt)
                  0x000110          0x4 LONG 0x273fa DEFINED (__AltReservedTrap6)?<code 339> (__AltReservedTrap6):DEFINED (__ReservedTrap6)?<code 339> (__ReservedTrap6):<code 339> (__DefaultInterrupt)
                  0x000112          0x4 LONG 0x273fa DEFINED (__AltReservedTrap7)?<code 339> (__AltReservedTrap7):DEFINED (__ReservedTrap7)?<code 339> (__ReservedTrap7):<code 339> (__DefaultInterrupt)
                  0x000114          0x4 LONG 0x273fa DEFINED (__AltINT0Interrupt)?<code 339> (__AltINT0Interrupt):DEFINED (__INT0Interrupt)?<code 339> (__INT0Interrupt):<code 339> (__DefaultInterrupt)
                  0x000116          0x4 LONG 0x23640 DEFINED (__AltIC1Interrupt)?<code 339> (__AltIC1Interrupt):DEFINED (__IC1Interrupt)?<code 339> (__IC1Interrupt):<code 339> (__DefaultInterrupt)
                  0x000118          0x4 LONG 0x273fa DEFINED (__AltOC1Interrupt)?<code 339> (__AltOC1Interrupt):DEFINED (__OC1Interrupt)?<code 339> (__OC1Interrupt):<code 339> (__DefaultInterrupt)
                  0x00011a          0x4 LONG 0x27d6c DEFINED (__AltT1Interrupt)?<code 339> (__AltT1Interrupt):DEFINED (__T1Interrupt)?<code 339> (__T1Interrupt):<code 339> (__DefaultInterrupt)
                  0x00011c          0x4 LONG 0x273fa DEFINED (__AltInterrupt4)?<code 339> (__AltInterrupt4):DEFINED (__Interrupt4)?<code 339> (__Interrupt4):<code 339> (__DefaultInterrupt)
                  0x00011e          0x4 LONG 0x2367a DEFINED (__AltIC2Interrupt)?<code 339> (__AltIC2Interrupt):DEFINED (__IC2Interrupt)?<code 339> (__IC2Interrupt):<code 339> (__DefaultInterrupt)
                  0x000120          0x4 LONG 0x273fa DEFINED (__AltOC2Interrupt)?<code 339> (__AltOC2Interrupt):DEFINED (__OC2Interrupt)?<code 339> (__OC2Interrupt):<code 339> (__DefaultInterrupt)
                  0x000122          0x4 LONG 0x273fa DEFINED (__AltT2Interrupt)?<code 339> (__AltT2Interrupt):DEFINED (__T2Interrupt)?<code 339> (__T2Interrupt):<code 339> (__DefaultInterrupt)
                  0x000124          0x4 LONG 0x273fa DEFINED (__AltT3Interrupt)?<code 339> (__AltT3Interrupt):DEFINED (__T3Interrupt)?<code 339> (__T3Interrupt):<code 339> (__DefaultInterrupt)
                  0x000126          0x4 LONG 0x273fa DEFINED (__AltSPI1ErrInterrupt)?<code 339> (__AltSPI1ErrInterrupt):DEFINED (__SPI1ErrInterrupt)?<code 339> (__SPI1ErrInterrupt):<code 339> (__DefaultInterrupt)
                  0x000128          0x4 LONG 0x273fa DEFINED (__AltSPI1Interrupt)?<code 339> (__AltSPI1Interrupt):DEFINED (__SPI1Interrupt)?<code 339> (__SPI1Interrupt):<code 339> (__DefaultInterrupt)
                  0x00012a          0x4 LONG 0x27394 DEFINED (__AltU1RXInterrupt)?<code 339> (__AltU1RXInterrupt):DEFINED (__U1RXInterrupt)?<code 339> (__U1RXInterrupt):<code 339> (__DefaultInterrupt)
                  0x00012c          0x4 LONG 0x273fa DEFINED (__AltU1TXInterrupt)?<code 339> (__AltU1TXInterrupt):DEFINED (__U1TXInterrupt)?<code 339> (__U1TXInterrupt):<code 339> (__DefaultInterrupt)
                  0x00012e          0x4 LONG 0x10920 DEFINED (__AltADC1Interrupt)?<code 339> (__AltADC1Interrupt):DEFINED (__ADC1Interrupt)?<code 339> (__ADC1Interrupt):<code 339> (__DefaultInterrupt)
                  0x000130          0x4 LONG 0x273fa DEFINED (__AltInterrupt14)?<code 339> (__AltInterrupt14):DEFINED (__Interrupt14)?<code 339> (__Interrupt14):<code 339> (__DefaultInterrupt)
                  0x000132          0x4 LONG 0x273fa DEFINED (__AltInterrupt15)?<code 339> (__AltInterrupt15):DEFINED (__Interrupt15)?<code 339> (__Interrupt15):<code 339> (__DefaultInterrupt)
                  0x000134          0x4 LONG 0x273fa DEFINED (__AltSI2C1Interrupt)?<code 339> (__AltSI2C1Interrupt):DEFINED (__SI2C1Interrupt)?<code 339> (__SI2C1Interrupt):<code 339> (__DefaultInterrupt)
                  0x000136          0x4 LONG 0x273fa DEFINED (__AltMI2C1Interrupt)?<code 339> (__AltMI2C1Interrupt):DEFINED (__MI2C1Interrupt)?<code 339> (__MI2C1Interrupt):<code 339> (__DefaultInterrupt)
                  0x000138          0x4 LONG 0x273fa DEFINED (__AltCompInterrupt)?<code 339> (__AltCompInterrupt):DEFINED (__CompInterrupt)?<code 339> (__CompInterrupt):<code 339> (__DefaultInterrupt)
                  0x00013a          0x4 LONG 0x273fa DEFINED (__AltCNInterrupt)?<code 339> (__AltCNInterrupt):DEFINED (__CNInterrupt)?<code 339> (__CNInterrupt):<code 339> (__DefaultInterrupt)
                  0x00013c          0x4 LONG 0x2880a DEFINED (__AltINT1Interrupt)?<code 339> (__AltINT1Interrupt):DEFINED (__INT1Interrupt)?<code 339> (__INT1Interrupt):<code 339> (__DefaultInterrupt)
                  0x00013e          0x4 LONG 0x273fa DEFINED (__AltInterrupt21)?<code 339> (__AltInterrupt21):DEFINED (__Interrupt21)?<code 339> (__Interrupt21):<code 339> (__DefaultInterrupt)
                  0x000140          0x4 LONG 0x273fa DEFINED (__AltIC7Interrupt)?<code 339> (__AltIC7Interrupt):DEFINED (__IC7Interrupt)?<code 339> (__IC7Interrupt):<code 339> (__DefaultInterrupt)
                  0x000142          0x4 LONG 0x273fa DEFINED (__AltIC8Interrupt)?<code 339> (__AltIC8Interrupt):DEFINED (__IC8Interrupt)?<code 339> (__IC8Interrupt):<code 339> (__DefaultInterrupt)
                  0x000144          0x4 LONG 0x273fa DEFINED (__AltInterrupt24)?<code 339> (__AltInterrupt24):DEFINED (__Interrupt24)?<code 339> (__Interrupt24):<code 339> (__DefaultInterrupt)
                  0x000146          0x4 LONG 0x273fa DEFINED (__AltOC3Interrupt)?<code 339> (__AltOC3Interrupt):DEFINED (__OC3Interrupt)?<code 339> (__OC3Interrupt):<code 339> (__DefaultInterrupt)
                  0x000148          0x4 LONG 0x273fa DEFINED (__AltOC4Interrupt)?<code 339> (__AltOC4Interrupt):DEFINED (__OC4Interrupt)?<code 339> (__OC4Interrupt):<code 339> (__DefaultInterrupt)
                  0x00014a          0x4 LONG 0x273fa DEFINED (__AltT4Interrupt)?<code 339> (__AltT4Interrupt):DEFINED (__T4Interrupt)?<code 339> (__T4Interrupt):<code 339> (__DefaultInterrupt)
                  0x00014c          0x4 LONG 0x27ae8 DEFINED (__AltT5Interrupt)?<code 339> (__AltT5Interrupt):DEFINED (__T5Interrupt)?<code 339> (__T5Interrupt):<code 339> (__DefaultInterrupt)
                  0x00014e          0x4 LONG 0x274cc DEFINED (__AltINT2Interrupt)?<code 339> (__AltINT2Interrupt):DEFINED (__INT2Interrupt)?<code 339> (__INT2Interrupt):<code 339> (__DefaultInterrupt)
                  0x000150          0x4 LONG 0x273b4 DEFINED (__AltU2RXInterrupt)?<code 339> (__AltU2RXInterrupt):DEFINED (__U2RXInterrupt)?<code 339> (__U2RXInterrupt):<code 339> (__DefaultInterrupt)
                  0x000152          0x4 LONG 0x273fa DEFINED (__AltU2TXInterrupt)?<code 339> (__AltU2TXInterrupt):DEFINED (__U2TXInterrupt)?<code 339> (__U2TXInterrupt):<code 339> (__DefaultInterrupt)
                  0x000154          0x4 LONG 0x273fa DEFINED (__AltSPI2ErrInterrupt)?<code 339> (__AltSPI2ErrInterrupt):DEFINED (__SPI2ErrInterrupt)?<code 339> (__SPI2ErrInterrupt):<code 339> (__DefaultInterrupt)
                  0x000156          0x4 LONG 0x273fa DEFINED (__AltSPI2Interrupt)?<code 339> (__AltSPI2Interrupt):DEFINED (__SPI2Interrupt)?<code 339> (__SPI2Interrupt):<code 339> (__DefaultInterrupt)
                  0x000158          0x4 LONG 0x273fa DEFINED (__AltInterrupt34)?<code 339> (__AltInterrupt34):DEFINED (__Interrupt34)?<code 339> (__Interrupt34):<code 339> (__DefaultInterrupt)
                  0x00015a          0x4 LONG 0x273fa DEFINED (__AltInterrupt35)?<code 339> (__AltInterrupt35):DEFINED (__Interrupt35)?<code 339> (__Interrupt35):<code 339> (__DefaultInterrupt)
                  0x00015c          0x4 LONG 0x273fa DEFINED (__AltInterrupt36)?<code 339> (__AltInterrupt36):DEFINED (__Interrupt36)?<code 339> (__Interrupt36):<code 339> (__DefaultInterrupt)
                  0x00015e          0x4 LONG 0x23694 DEFINED (__AltIC3Interrupt)?<code 339> (__AltIC3Interrupt):DEFINED (__IC3Interrupt)?<code 339> (__IC3Interrupt):<code 339> (__DefaultInterrupt)
                  0x000160          0x4 LONG 0x236ce DEFINED (__AltIC4Interrupt)?<code 339> (__AltIC4Interrupt):DEFINED (__IC4Interrupt)?<code 339> (__IC4Interrupt):<code 339> (__DefaultInterrupt)
                  0x000162          0x4 LONG 0x236e8 DEFINED (__AltIC5Interrupt)?<code 339> (__AltIC5Interrupt):DEFINED (__IC5Interrupt)?<code 339> (__IC5Interrupt):<code 339> (__DefaultInterrupt)
                  0x000164          0x4 LONG 0x23722 DEFINED (__AltIC6Interrupt)?<code 339> (__AltIC6Interrupt):DEFINED (__IC6Interrupt)?<code 339> (__IC6Interrupt):<code 339> (__DefaultInterrupt)
                  0x000166          0x4 LONG 0x273fa DEFINED (__AltOC5Interrupt)?<code 339> (__AltOC5Interrupt):DEFINED (__OC5Interrupt)?<code 339> (__OC5Interrupt):<code 339> (__DefaultInterrupt)
                  0x000168          0x4 LONG 0x273fa DEFINED (__AltOC6Interrupt)?<code 339> (__AltOC6Interrupt):DEFINED (__OC6Interrupt)?<code 339> (__OC6Interrupt):<code 339> (__DefaultInterrupt)
                  0x00016a          0x4 LONG 0x273fa DEFINED (__AltOC7Interrupt)?<code 339> (__AltOC7Interrupt):DEFINED (__OC7Interrupt)?<code 339> (__OC7Interrupt):<code 339> (__DefaultInterrupt)
                  0x00016c          0x4 LONG 0x273fa DEFINED (__AltOC8Interrupt)?<code 339> (__AltOC8Interrupt):DEFINED (__OC8Interrupt)?<code 339> (__OC8Interrupt):<code 339> (__DefaultInterrupt)
                  0x00016e          0x4 LONG 0x273fa DEFINED (__AltPMPInterrupt)?<code 339> (__AltPMPInterrupt):DEFINED (__PMPInterrupt)?<code 339> (__PMPInterrupt):<code 339> (__DefaultInterrupt)
                  0x000170          0x4 LONG 0x273fa DEFINED (__AltInterrupt46)?<code 339> (__AltInterrupt46):DEFINED (__Interrupt46)?<code 339> (__Interrupt46):<code 339> (__DefaultInterrupt)
                  0x000172          0x4 LONG 0x273fa DEFINED (__AltInterrupt47)?<code 339> (__AltInterrupt47):DEFINED (__Interrupt47)?<code 339> (__Interrupt47):<code 339> (__DefaultInterrupt)
                  0x000174          0x4 LONG 0x273fa DEFINED (__AltInterrupt48)?<code 339> (__AltInterrupt48):DEFINED (__Interrupt48)?<code 339> (__Interrupt48):<code 339> (__DefaultInterrupt)
                  0x000176          0x4 LONG 0x273fa DEFINED (__AltSI2C2Interrupt)?<code 339> (__AltSI2C2Interrupt):DEFINED (__SI2C2Interrupt)?<code 339> (__SI2C2Interrupt):<code 339> (__DefaultInterrupt)
                  0x000178          0x4 LONG 0x273fa DEFINED (__AltMI2C2Interrupt)?<code 339> (__AltMI2C2Interrupt):DEFINED (__MI2C2Interrupt)?<code 339> (__MI2C2Interrupt):<code 339> (__DefaultInterrupt)
                  0x00017a          0x4 LONG 0x273fa DEFINED (__AltInterrupt51)?<code 339> (__AltInterrupt51):DEFINED (__Interrupt51)?<code 339> (__Interrupt51):<code 339> (__DefaultInterrupt)
                  0x00017c          0x4 LONG 0x273fa DEFINED (__AltInterrupt52)?<code 339> (__AltInterrupt52):DEFINED (__Interrupt52)?<code 339> (__Interrupt52):<code 339> (__DefaultInterrupt)
                  0x00017e          0x4 LONG 0x274f4 DEFINED (__AltINT3Interrupt)?<code 339> (__AltINT3Interrupt):DEFINED (__INT3Interrupt)?<code 339> (__INT3Interrupt):<code 339> (__DefaultInterrupt)
                  0x000180          0x4 LONG 0x2751c DEFINED (__AltINT4Interrupt)?<code 339> (__AltINT4Interrupt):DEFINED (__INT4Interrupt)?<code 339> (__INT4Interrupt):<code 339> (__DefaultInterrupt)
                  0x000182          0x4 LONG 0x273fa DEFINED (__AltInterrupt55)?<code 339> (__AltInterrupt55):DEFINED (__Interrupt55)?<code 339> (__Interrupt55):<code 339> (__DefaultInterrupt)
                  0x000184          0x4 LONG 0x273fa DEFINED (__AltInterrupt56)?<code 339> (__AltInterrupt56):DEFINED (__Interrupt56)?<code 339> (__Interrupt56):<code 339> (__DefaultInterrupt)
                  0x000186          0x4 LONG 0x273fa DEFINED (__AltInterrupt57)?<code 339> (__AltInterrupt57):DEFINED (__Interrupt57)?<code 339> (__Interrupt57):<code 339> (__DefaultInterrupt)
                  0x000188          0x4 LONG 0x273fa DEFINED (__AltInterrupt58)?<code 339> (__AltInterrupt58):DEFINED (__Interrupt58)?<code 339> (__Interrupt58):<code 339> (__DefaultInterrupt)
                  0x00018a          0x4 LONG 0x273fa DEFINED (__AltInterrupt59)?<code 339> (__AltInterrupt59):DEFINED (__Interrupt59)?<code 339> (__Interrupt59):<code 339> (__DefaultInterrupt)
                  0x00018c          0x4 LONG 0x273fa DEFINED (__AltInterrupt60)?<code 339> (__AltInterrupt60):DEFINED (__Interrupt60)?<code 339> (__Interrupt60):<code 339> (__DefaultInterrupt)
                  0x00018e          0x4 LONG 0x273fa DEFINED (__AltInterrupt61)?<code 339> (__AltInterrupt61):DEFINED (__Interrupt61)?<code 339> (__Interrupt61):<code 339> (__DefaultInterrupt)
                  0x000190          0x4 LONG 0x26000 DEFINED (__AltRTCCInterrupt)?<code 339> (__AltRTCCInterrupt):DEFINED (__RTCCInterrupt)?<code 339> (__RTCCInterrupt):<code 339> (__DefaultInterrupt)
                  0x000192          0x4 LONG 0x273fa DEFINED (__AltInterrupt63)?<code 339> (__AltInterrupt63):DEFINED (__Interrupt63)?<code 339> (__Interrupt63):<code 339> (__DefaultInterrupt)
                  0x000194          0x4 LONG 0x273fa DEFINED (__AltInterrupt64)?<code 339> (__AltInterrupt64):DEFINED (__Interrupt64)?<code 339> (__Interrupt64):<code 339> (__DefaultInterrupt)
                  0x000196          0x4 LONG 0x273fa DEFINED (__AltU1ErrInterrupt)?<code 339> (__AltU1ErrInterrupt):DEFINED (__U1ErrInterrupt)?<code 339> (__U1ErrInterrupt):<code 339> (__DefaultInterrupt)
                  0x000198          0x4 LONG 0x273fa DEFINED (__AltU2ErrInterrupt)?<code 339> (__AltU2ErrInterrupt):DEFINED (__U2ErrInterrupt)?<code 339> (__U2ErrInterrupt):<code 339> (__DefaultInterrupt)
                  0x00019a          0x4 LONG 0x273fa DEFINED (__AltCRCInterrupt)?<code 339> (__AltCRCInterrupt):DEFINED (__CRCInterrupt)?<code 339> (__CRCInterrupt):<code 339> (__DefaultInterrupt)
                  0x00019c          0x4 LONG 0x273fa DEFINED (__AltInterrupt68)?<code 339> (__AltInterrupt68):DEFINED (__Interrupt68)?<code 339> (__Interrupt68):<code 339> (__DefaultInterrupt)
                  0x00019e          0x4 LONG 0x273fa DEFINED (__AltInterrupt69)?<code 339> (__AltInterrupt69):DEFINED (__Interrupt69)?<code 339> (__Interrupt69):<code 339> (__DefaultInterrupt)
                  0x0001a0          0x4 LONG 0x273fa DEFINED (__AltInterrupt70)?<code 339> (__AltInterrupt70):DEFINED (__Interrupt70)?<code 339> (__Interrupt70):<code 339> (__DefaultInterrupt)
                  0x0001a2          0x4 LONG 0x273fa DEFINED (__AltInterrupt71)?<code 339> (__AltInterrupt71):DEFINED (__Interrupt71)?<code 339> (__Interrupt71):<code 339> (__DefaultInterrupt)
                  0x0001a4          0x4 LONG 0x273fa DEFINED (__AltLVDInterrupt)?<code 339> (__AltLVDInterrupt):DEFINED (__LVDInterrupt)?<code 339> (__LVDInterrupt):<code 339> (__DefaultInterrupt)
                  0x0001a6          0x4 LONG 0x273fa DEFINED (__AltInterrupt73)?<code 339> (__AltInterrupt73):DEFINED (__Interrupt73)?<code 339> (__Interrupt73):<code 339> (__DefaultInterrupt)
                  0x0001a8          0x4 LONG 0x273fa DEFINED (__AltInterrupt74)?<code 339> (__AltInterrupt74):DEFINED (__Interrupt74)?<code 339> (__Interrupt74):<code 339> (__DefaultInterrupt)
                  0x0001aa          0x4 LONG 0x273fa DEFINED (__AltInterrupt75)?<code 339> (__AltInterrupt75):DEFINED (__Interrupt75)?<code 339> (__Interrupt75):<code 339> (__DefaultInterrupt)
                  0x0001ac          0x4 LONG 0x273fa DEFINED (__AltInterrupt76)?<code 339> (__AltInterrupt76):DEFINED (__Interrupt76)?<code 339> (__Interrupt76):<code 339> (__DefaultInterrupt)
                  0x0001ae          0x4 LONG 0x273fa DEFINED (__AltCTMUInterrupt)?<code 339> (__AltCTMUInterrupt):DEFINED (__CTMUInterrupt)?<code 339> (__CTMUInterrupt):<code 339> (__DefaultInterrupt)
                  0x0001b0          0x4 LONG 0x273fa DEFINED (__AltInterrupt78)?<code 339> (__AltInterrupt78):DEFINED (__Interrupt78)?<code 339> (__Interrupt78):<code 339> (__DefaultInterrupt)
                  0x0001b2          0x4 LONG 0x273fa DEFINED (__AltInterrupt79)?<code 339> (__AltInterrupt79):DEFINED (__Interrupt79)?<code 339> (__Interrupt79):<code 339> (__DefaultInterrupt)
                  0x0001b4          0x4 LONG 0x273fa DEFINED (__AltInterrupt80)?<code 339> (__AltInterrupt80):DEFINED (__Interrupt80)?<code 339> (__Interrupt80):<code 339> (__DefaultInterrupt)
                  0x0001b6          0x4 LONG 0x273fa DEFINED (__AltU3ErrInterrupt)?<code 339> (__AltU3ErrInterrupt):DEFINED (__U3ErrInterrupt)?<code 339> (__U3ErrInterrupt):<code 339> (__DefaultInterrupt)
                  0x0001b8          0x4 LONG 0x273d4 DEFINED (__AltU3RXInterrupt)?<code 339> (__AltU3RXInterrupt):DEFINED (__U3RXInterrupt)?<code 339> (__U3RXInterrupt):<code 339> (__DefaultInterrupt)
                  0x0001ba          0x4 LONG 0x273fa DEFINED (__AltU3TXInterrupt)?<code 339> (__AltU3TXInterrupt):DEFINED (__U3TXInterrupt)?<code 339> (__U3TXInterrupt):<code 339> (__DefaultInterrupt)
                  0x0001bc          0x4 LONG 0x273fa DEFINED (__AltSI2C3Interrupt)?<code 339> (__AltSI2C3Interrupt):DEFINED (__SI2C3Interrupt)?<code 339> (__SI2C3Interrupt):<code 339> (__DefaultInterrupt)
                  0x0001be          0x4 LONG 0x273fa DEFINED (__AltMI2C3Interrupt)?<code 339> (__AltMI2C3Interrupt):DEFINED (__MI2C3Interrupt)?<code 339> (__MI2C3Interrupt):<code 339> (__DefaultInterrupt)
                  0x0001c0          0x4 LONG 0x273fa DEFINED (__AltUSB1Interrupt)?<code 339> (__AltUSB1Interrupt):DEFINED (__USB1Interrupt)?<code 339> (__USB1Interrupt):<code 339> (__DefaultInterrupt)
                  0x0001c2          0x4 LONG 0x273fa DEFINED (__AltU4ErrInterrupt)?<code 339> (__AltU4ErrInterrupt):DEFINED (__U4ErrInterrupt)?<code 339> (__U4ErrInterrupt):<code 339> (__DefaultInterrupt)
                  0x0001c4          0x4 LONG 0x273f4 DEFINED (__AltU4RXInterrupt)?<code 339> (__AltU4RXInterrupt):DEFINED (__U4RXInterrupt)?<code 339> (__U4RXInterrupt):<code 339> (__DefaultInterrupt)
                  0x0001c6          0x4 LONG 0x273fa DEFINED (__AltU4TXInterrupt)?<code 339> (__AltU4TXInterrupt):DEFINED (__U4TXInterrupt)?<code 339> (__U4TXInterrupt):<code 339> (__DefaultInterrupt)
                  0x0001c8          0x4 LONG 0x273fa DEFINED (__AltSPI3ErrInterrupt)?<code 339> (__AltSPI3ErrInterrupt):DEFINED (__SPI3ErrInterrupt)?<code 339> (__SPI3ErrInterrupt):<code 339> (__DefaultInterrupt)
                  0x0001ca          0x4 LONG 0x273fa DEFINED (__AltSPI3Interrupt)?<code 339> (__AltSPI3Interrupt):DEFINED (__SPI3Interrupt)?<code 339> (__SPI3Interrupt):<code 339> (__DefaultInterrupt)
                  0x0001cc          0x4 LONG 0x273fa DEFINED (__AltOC9Interrupt)?<code 339> (__AltOC9Interrupt):DEFINED (__OC9Interrupt)?<code 339> (__OC9Interrupt):<code 339> (__DefaultInterrupt)
                  0x0001ce          0x4 LONG 0x273fa DEFINED (__AltIC9Interrupt)?<code 339> (__AltIC9Interrupt):DEFINED (__IC9Interrupt)?<code 339> (__IC9Interrupt):<code 339> (__DefaultInterrupt)
                  0x0001d0          0x4 LONG 0x273fa DEFINED (__AltInterrupt94)?<code 339> (__AltInterrupt94):DEFINED (__Interrupt94)?<code 339> (__Interrupt94):<code 339> (__DefaultInterrupt)
                  0x0001d2          0x4 LONG 0x273fa DEFINED (__AltInterrupt95)?<code 339> (__AltInterrupt95):DEFINED (__Interrupt95)?<code 339> (__Interrupt95):<code 339> (__DefaultInterrupt)
                  0x0001d4          0x4 LONG 0x273fa DEFINED (__AltInterrupt96)?<code 339> (__AltInterrupt96):DEFINED (__Interrupt96)?<code 339> (__Interrupt96):<code 339> (__DefaultInterrupt)
                  0x0001d6          0x4 LONG 0x273fa DEFINED (__AltInterrupt97)?<code 339> (__AltInterrupt97):DEFINED (__Interrupt97)?<code 339> (__Interrupt97):<code 339> (__DefaultInterrupt)
                  0x0001d8          0x4 LONG 0x273fa DEFINED (__AltInterrupt98)?<code 339> (__AltInterrupt98):DEFINED (__Interrupt98)?<code 339> (__Interrupt98):<code 339> (__DefaultInterrupt)
                  0x0001da          0x4 LONG 0x273fa DEFINED (__AltInterrupt99)?<code 339> (__AltInterrupt99):DEFINED (__Interrupt99)?<code 339> (__Interrupt99):<code 339> (__DefaultInterrupt)
                  0x0001dc          0x4 LONG 0x273fa DEFINED (__AltInterrupt100)?<code 339> (__AltInterrupt100):DEFINED (__Interrupt100)?<code 339> (__Interrupt100):<code 339> (__DefaultInterrupt)
                  0x0001de          0x4 LONG 0x273fa DEFINED (__AltInterrupt101)?<code 339> (__AltInterrupt101):DEFINED (__Interrupt101)?<code 339> (__Interrupt101):<code 339> (__DefaultInterrupt)
                  0x0001e0          0x4 LONG 0x273fa DEFINED (__AltInterrupt102)?<code 339> (__AltInterrupt102):DEFINED (__Interrupt102)?<code 339> (__Interrupt102):<code 339> (__DefaultInterrupt)
                  0x0001e2          0x4 LONG 0x273fa DEFINED (__AltInterrupt103)?<code 339> (__AltInterrupt103):DEFINED (__Interrupt103)?<code 339> (__Interrupt103):<code 339> (__DefaultInterrupt)
                  0x0001e4          0x4 LONG 0x273fa DEFINED (__AltInterrupt104)?<code 339> (__AltInterrupt104):DEFINED (__Interrupt104)?<code 339> (__Interrupt104):<code 339> (__DefaultInterrupt)
                  0x0001e6          0x4 LONG 0x273fa DEFINED (__AltInterrupt105)?<code 339> (__AltInterrupt105):DEFINED (__Interrupt105)?<code 339> (__Interrupt105):<code 339> (__DefaultInterrupt)
                  0x0001e8          0x4 LONG 0x273fa DEFINED (__AltInterrupt106)?<code 339> (__AltInterrupt106):DEFINED (__Interrupt106)?<code 339> (__Interrupt106):<code 339> (__DefaultInterrupt)
                  0x0001ea          0x4 LONG 0x273fa DEFINED (__AltInterrupt107)?<code 339> (__AltInterrupt107):DEFINED (__Interrupt107)?<code 339> (__Interrupt107):<code 339> (__DefaultInterrupt)
                  0x0001ec          0x4 LONG 0x273fa DEFINED (__AltInterrupt108)?<code 339> (__AltInterrupt108):DEFINED (__Interrupt108)?<code 339> (__Interrupt108):<code 339> (__DefaultInterrupt)
                  0x0001ee          0x4 LONG 0x273fa DEFINED (__AltInterrupt109)?<code 339> (__AltInterrupt109):DEFINED (__Interrupt109)?<code 339> (__Interrupt109):<code 339> (__DefaultInterrupt)
                  0x0001f0          0x4 LONG 0x273fa DEFINED (__AltInterrupt110)?<code 339> (__AltInterrupt110):DEFINED (__Interrupt110)?<code 339> (__Interrupt110):<code 339> (__DefaultInterrupt)
                  0x0001f2          0x4 LONG 0x273fa DEFINED (__AltInterrupt111)?<code 339> (__AltInterrupt111):DEFINED (__Interrupt111)?<code 339> (__Interrupt111):<code 339> (__DefaultInterrupt)
                  0x0001f4          0x4 LONG 0x273fa DEFINED (__AltInterrupt112)?<code 339> (__AltInterrupt112):DEFINED (__Interrupt112)?<code 339> (__Interrupt112):<code 339> (__DefaultInterrupt)
                  0x0001f6          0x4 LONG 0x273fa DEFINED (__AltInterrupt113)?<code 339> (__AltInterrupt113):DEFINED (__Interrupt113)?<code 339> (__Interrupt113):<code 339> (__DefaultInterrupt)
                  0x0001f8          0x4 LONG 0x273fa DEFINED (__AltInterrupt114)?<code 339> (__AltInterrupt114):DEFINED (__Interrupt114)?<code 339> (__Interrupt114):<code 339> (__DefaultInterrupt)
                  0x0001fa          0x4 LONG 0x273fa DEFINED (__AltInterrupt115)?<code 339> (__AltInterrupt115):DEFINED (__Interrupt115)?<code 339> (__Interrupt115):<code 339> (__DefaultInterrupt)
                  0x0001fc          0x4 LONG 0x273fa DEFINED (__AltInterrupt116)?<code 339> (__AltInterrupt116):DEFINED (__Interrupt116)?<code 339> (__Interrupt116):<code 339> (__DefaultInterrupt)
                  0x0001fe          0x4 LONG 0x273fa DEFINED (__AltInterrupt117)?<code 339> (__AltInterrupt117):DEFINED (__Interrupt117)?<code 339> (__Interrupt117):<code 339> (__DefaultInterrupt)
                    0x0000                  WREG0 = 0x0
                    0x0000                  _WREG0 = 0x0
                    0x0002                  WREG1 = 0x2
                    0x0002                  _WREG1 = 0x2
                    0x0004                  WREG2 = 0x4
                    0x0004                  _WREG2 = 0x4
                    0x0006                  WREG3 = 0x6
                    0x0006                  _WREG3 = 0x6
                    0x0008                  WREG4 = 0x8
                    0x0008                  _WREG4 = 0x8
                    0x000a                  WREG5 = 0xa
                    0x000a                  _WREG5 = 0xa
                    0x000c                  WREG6 = 0xc
                    0x000c                  _WREG6 = 0xc
                    0x000e                  WREG7 = 0xe
                    0x000e                  _WREG7 = 0xe
                    0x0010                  WREG8 = 0x10
                    0x0010                  _WREG8 = 0x10
                    0x0012                  WREG9 = 0x12
                    0x0012                  _WREG9 = 0x12
                    0x0014                  WREG10 = 0x14
                    0x0014                  _WREG10 = 0x14
                    0x0016                  WREG11 = 0x16
                    0x0016                  _WREG11 = 0x16
                    0x0018                  WREG12 = 0x18
                    0x0018                  _WREG12 = 0x18
                    0x001a                  WREG13 = 0x1a
                    0x001a                  _WREG13 = 0x1a
                    0x001c                  WREG14 = 0x1c
                    0x001c                  _WREG14 = 0x1c
                    0x001e                  WREG15 = 0x1e
                    0x001e                  _WREG15 = 0x1e
                    0x0020                  SPLIM = 0x20
                    0x0020                  _SPLIM = 0x20
                    0x002e                  PCL = 0x2e
                    0x002e                  _PCL = 0x2e
                    0x0030                  PCH = 0x30
                    0x0030                  _PCH = 0x30
                    0x0032                  DSRPAG = 0x32
                    0x0032                  _DSRPAG = 0x32
                    0x0034                  DSWPAG = 0x34
                    0x0034                  _DSWPAG = 0x34
                    0x0036                  RCOUNT = 0x36
                    0x0036                  _RCOUNT = 0x36
                    0x0042                  SR = 0x42
                    0x0042                  _SR = 0x42
                    0x0042                  _SRbits = 0x42
                    0x0044                  CORCON = 0x44
                    0x0044                  _CORCON = 0x44
                    0x0044                  _CORCONbits = 0x44
                    0x0052                  DISICNT = 0x52
                    0x0052                  _DISICNT = 0x52
                    0x0054                  TBLPAG = 0x54
                    0x0054                  _TBLPAG = 0x54
                    0x0056                  CNPD1 = 0x56
                    0x0056                  _CNPD1 = 0x56
                    0x0056                  _CNPD1bits = 0x56
                    0x0058                  CNPD2 = 0x58
                    0x0058                  _CNPD2 = 0x58
                    0x0058                  _CNPD2bits = 0x58
                    0x005a                  CNPD3 = 0x5a
                    0x005a                  _CNPD3 = 0x5a
                    0x005a                  _CNPD3bits = 0x5a
                    0x005c                  CNPD4 = 0x5c
                    0x005c                  _CNPD4 = 0x5c
                    0x005c                  _CNPD4bits = 0x5c
                    0x005e                  CNPD5 = 0x5e
                    0x005e                  _CNPD5 = 0x5e
                    0x005e                  _CNPD5bits = 0x5e
                    0x0060                  CNPD6 = 0x60
                    0x0060                  _CNPD6 = 0x60
                    0x0060                  _CNPD6bits = 0x60
                    0x0062                  CNEN1 = 0x62
                    0x0062                  _CNEN1 = 0x62
                    0x0062                  _CNEN1bits = 0x62
                    0x0064                  CNEN2 = 0x64
                    0x0064                  _CNEN2 = 0x64
                    0x0064                  _CNEN2bits = 0x64
                    0x0066                  CNEN3 = 0x66
                    0x0066                  _CNEN3 = 0x66
                    0x0066                  _CNEN3bits = 0x66
                    0x0068                  CNEN4 = 0x68
                    0x0068                  _CNEN4 = 0x68
                    0x0068                  _CNEN4bits = 0x68
                    0x006a                  CNEN5 = 0x6a
                    0x006a                  _CNEN5 = 0x6a
                    0x006a                  _CNEN5bits = 0x6a
                    0x006c                  CNEN6 = 0x6c
                    0x006c                  _CNEN6 = 0x6c
                    0x006c                  _CNEN6bits = 0x6c
                    0x006e                  CNPU1 = 0x6e
                    0x006e                  _CNPU1 = 0x6e
                    0x006e                  _CNPU1bits = 0x6e
                    0x0070                  CNPU2 = 0x70
                    0x0070                  _CNPU2 = 0x70
                    0x0070                  _CNPU2bits = 0x70
                    0x0072                  CNPU3 = 0x72
                    0x0072                  _CNPU3 = 0x72
                    0x0072                  _CNPU3bits = 0x72
                    0x0074                  CNPU4 = 0x74
                    0x0074                  _CNPU4 = 0x74
                    0x0074                  _CNPU4bits = 0x74
                    0x0076                  CNPU5 = 0x76
                    0x0076                  _CNPU5 = 0x76
                    0x0076                  _CNPU5bits = 0x76
                    0x0078                  CNPU6 = 0x78
                    0x0078                  _CNPU6 = 0x78
                    0x0078                  _CNPU6bits = 0x78
                    0x0080                  INTCON1 = 0x80
                    0x0080                  _INTCON1 = 0x80
                    0x0080                  _INTCON1bits = 0x80
                    0x0082                  INTCON2 = 0x82
                    0x0082                  _INTCON2 = 0x82
                    0x0082                  _INTCON2bits = 0x82
                    0x0084                  IFS0 = 0x84
                    0x0084                  _IFS0 = 0x84
                    0x0084                  _IFS0bits = 0x84
                    0x0086                  IFS1 = 0x86
                    0x0086                  _IFS1 = 0x86
                    0x0086                  _IFS1bits = 0x86
                    0x0088                  IFS2 = 0x88
                    0x0088                  _IFS2 = 0x88
                    0x0088                  _IFS2bits = 0x88
                    0x008a                  IFS3 = 0x8a
                    0x008a                  _IFS3 = 0x8a
                    0x008a                  _IFS3bits = 0x8a
                    0x008c                  IFS4 = 0x8c
                    0x008c                  _IFS4 = 0x8c
                    0x008c                  _IFS4bits = 0x8c
                    0x008e                  IFS5 = 0x8e
                    0x008e                  _IFS5 = 0x8e
                    0x008e                  _IFS5bits = 0x8e
                    0x0094                  IEC0 = 0x94
                    0x0094                  _IEC0 = 0x94
                    0x0094                  _IEC0bits = 0x94
                    0x0096                  IEC1 = 0x96
                    0x0096                  _IEC1 = 0x96
                    0x0096                  _IEC1bits = 0x96
                    0x0098                  IEC2 = 0x98
                    0x0098                  _IEC2 = 0x98
                    0x0098                  _IEC2bits = 0x98
                    0x009a                  IEC3 = 0x9a
                    0x009a                  _IEC3 = 0x9a
                    0x009a                  _IEC3bits = 0x9a
                    0x009c                  IEC4 = 0x9c
                    0x009c                  _IEC4 = 0x9c
                    0x009c                  _IEC4bits = 0x9c
                    0x009e                  IEC5 = 0x9e
                    0x009e                  _IEC5 = 0x9e
                    0x009e                  _IEC5bits = 0x9e
                    0x00a4                  IPC0 = 0xa4
                    0x00a4                  _IPC0 = 0xa4
                    0x00a4                  _IPC0bits = 0xa4
                    0x00a6                  IPC1 = 0xa6
                    0x00a6                  _IPC1 = 0xa6
                    0x00a6                  _IPC1bits = 0xa6
                    0x00a8                  IPC2 = 0xa8
                    0x00a8                  _IPC2 = 0xa8
                    0x00a8                  _IPC2bits = 0xa8
                    0x00aa                  IPC3 = 0xaa
                    0x00aa                  _IPC3 = 0xaa
                    0x00aa                  _IPC3bits = 0xaa
                    0x00ac                  IPC4 = 0xac
                    0x00ac                  _IPC4 = 0xac
                    0x00ac                  _IPC4bits = 0xac
                    0x00ae                  IPC5 = 0xae
                    0x00ae                  _IPC5 = 0xae
                    0x00ae                  _IPC5bits = 0xae
                    0x00b0                  IPC6 = 0xb0
                    0x00b0                  _IPC6 = 0xb0
                    0x00b0                  _IPC6bits = 0xb0
                    0x00b2                  IPC7 = 0xb2
                    0x00b2                  _IPC7 = 0xb2
                    0x00b2                  _IPC7bits = 0xb2
                    0x00b4                  IPC8 = 0xb4
                    0x00b4                  _IPC8 = 0xb4
                    0x00b4                  _IPC8bits = 0xb4
                    0x00b6                  IPC9 = 0xb6
                    0x00b6                  _IPC9 = 0xb6
                    0x00b6                  _IPC9bits = 0xb6
                    0x00b8                  IPC10 = 0xb8
                    0x00b8                  _IPC10 = 0xb8
                    0x00b8                  _IPC10bits = 0xb8
                    0x00ba                  IPC11 = 0xba
                    0x00ba                  _IPC11 = 0xba
                    0x00ba                  _IPC11bits = 0xba
                    0x00bc                  IPC12 = 0xbc
                    0x00bc                  _IPC12 = 0xbc
                    0x00bc                  _IPC12bits = 0xbc
                    0x00be                  IPC13 = 0xbe
                    0x00be                  _IPC13 = 0xbe
                    0x00be                  _IPC13bits = 0xbe
                    0x00c2                  IPC15 = 0xc2
                    0x00c2                  _IPC15 = 0xc2
                    0x00c2                  _IPC15bits = 0xc2
                    0x00c4                  IPC16 = 0xc4
                    0x00c4                  _IPC16 = 0xc4
                    0x00c4                  _IPC16bits = 0xc4
                    0x00c8                  IPC18 = 0xc8
                    0x00c8                  _IPC18 = 0xc8
                    0x00c8                  _IPC18bits = 0xc8
                    0x00ca                  IPC19 = 0xca
                    0x00ca                  _IPC19 = 0xca
                    0x00ca                  _IPC19bits = 0xca
                    0x00cc                  IPC20 = 0xcc
                    0x00cc                  _IPC20 = 0xcc
                    0x00cc                  _IPC20bits = 0xcc
                    0x00ce                  IPC21 = 0xce
                    0x00ce                  _IPC21 = 0xce
                    0x00ce                  _IPC21bits = 0xce
                    0x00d0                  IPC22 = 0xd0
                    0x00d0                  _IPC22 = 0xd0
                    0x00d0                  _IPC22bits = 0xd0
                    0x00d2                  IPC23 = 0xd2
                    0x00d2                  _IPC23 = 0xd2
                    0x00d2                  _IPC23bits = 0xd2
                    0x00e0                  INTTREG = 0xe0
                    0x00e0                  _INTTREG = 0xe0
                    0x00e0                  _INTTREGbits = 0xe0
                    0x0100                  TMR1 = 0x100
                    0x0100                  _TMR1 = 0x100
                    0x0102                  PR1 = 0x102
                    0x0102                  _PR1 = 0x102
                    0x0104                  T1CON = 0x104
                    0x0104                  _T1CON = 0x104
                    0x0104                  _T1CONbits = 0x104
                    0x0106                  TMR2 = 0x106
                    0x0106                  _TMR2 = 0x106
                    0x0108                  TMR3HLD = 0x108
                    0x0108                  _TMR3HLD = 0x108
                    0x010a                  TMR3 = 0x10a
                    0x010a                  _TMR3 = 0x10a
                    0x010c                  PR2 = 0x10c
                    0x010c                  _PR2 = 0x10c
                    0x010e                  PR3 = 0x10e
                    0x010e                  _PR3 = 0x10e
                    0x0110                  T2CON = 0x110
                    0x0110                  _T2CON = 0x110
                    0x0110                  _T2CONbits = 0x110
                    0x0112                  T3CON = 0x112
                    0x0112                  _T3CON = 0x112
                    0x0112                  _T3CONbits = 0x112
                    0x0114                  TMR4 = 0x114
                    0x0114                  _TMR4 = 0x114
                    0x0116                  TMR5HLD = 0x116
                    0x0116                  _TMR5HLD = 0x116
                    0x0118                  TMR5 = 0x118
                    0x0118                  _TMR5 = 0x118
                    0x011a                  PR4 = 0x11a
                    0x011a                  _PR4 = 0x11a
                    0x011c                  PR5 = 0x11c
                    0x011c                  _PR5 = 0x11c
                    0x011e                  T4CON = 0x11e
                    0x011e                  _T4CON = 0x11e
                    0x011e                  _T4CONbits = 0x11e
                    0x0120                  T5CON = 0x120
                    0x0120                  _T5CON = 0x120
                    0x0120                  _T5CONbits = 0x120
                    0x0140                  IC1CON1 = 0x140
                    0x0140                  _IC1CON1 = 0x140
                    0x0140                  _IC1CON1bits = 0x140
                    0x0142                  IC1CON2 = 0x142
                    0x0142                  _IC1CON2 = 0x142
                    0x0142                  _IC1CON2bits = 0x142
                    0x0144                  IC1BUF = 0x144
                    0x0144                  _IC1BUF = 0x144
                    0x0146                  IC1TMR = 0x146
                    0x0146                  _IC1TMR = 0x146
                    0x0148                  IC2CON1 = 0x148
                    0x0148                  _IC2CON1 = 0x148
                    0x0148                  _IC2CON1bits = 0x148
                    0x014a                  IC2CON2 = 0x14a
                    0x014a                  _IC2CON2 = 0x14a
                    0x014a                  _IC2CON2bits = 0x14a
                    0x014c                  IC2BUF = 0x14c
                    0x014c                  _IC2BUF = 0x14c
                    0x014e                  IC2TMR = 0x14e
                    0x014e                  _IC2TMR = 0x14e
                    0x0150                  IC3CON1 = 0x150
                    0x0150                  _IC3CON1 = 0x150
                    0x0150                  _IC3CON1bits = 0x150
                    0x0152                  IC3CON2 = 0x152
                    0x0152                  _IC3CON2 = 0x152
                    0x0152                  _IC3CON2bits = 0x152
                    0x0154                  IC3BUF = 0x154
                    0x0154                  _IC3BUF = 0x154
                    0x0156                  IC3TMR = 0x156
                    0x0156                  _IC3TMR = 0x156
                    0x0158                  IC4CON1 = 0x158
                    0x0158                  _IC4CON1 = 0x158
                    0x0158                  _IC4CON1bits = 0x158
                    0x015a                  IC4CON2 = 0x15a
                    0x015a                  _IC4CON2 = 0x15a
                    0x015a                  _IC4CON2bits = 0x15a
                    0x015c                  IC4BUF = 0x15c
                    0x015c                  _IC4BUF = 0x15c
                    0x015e                  IC4TMR = 0x15e
                    0x015e                  _IC4TMR = 0x15e
                    0x0160                  IC5CON1 = 0x160
                    0x0160                  _IC5CON1 = 0x160
                    0x0160                  _IC5CON1bits = 0x160
                    0x0162                  IC5CON2 = 0x162
                    0x0162                  _IC5CON2 = 0x162
                    0x0162                  _IC5CON2bits = 0x162
                    0x0164                  IC5BUF = 0x164
                    0x0164                  _IC5BUF = 0x164
                    0x0166                  IC5TMR = 0x166
                    0x0166                  _IC5TMR = 0x166
                    0x0168                  IC6CON1 = 0x168
                    0x0168                  _IC6CON1 = 0x168
                    0x0168                  _IC6CON1bits = 0x168
                    0x016a                  IC6CON2 = 0x16a
                    0x016a                  _IC6CON2 = 0x16a
                    0x016a                  _IC6CON2bits = 0x16a
                    0x016c                  IC6BUF = 0x16c
                    0x016c                  _IC6BUF = 0x16c
                    0x016e                  IC6TMR = 0x16e
                    0x016e                  _IC6TMR = 0x16e
                    0x0170                  IC7CON1 = 0x170
                    0x0170                  _IC7CON1 = 0x170
                    0x0170                  _IC7CON1bits = 0x170
                    0x0172                  IC7CON2 = 0x172
                    0x0172                  _IC7CON2 = 0x172
                    0x0172                  _IC7CON2bits = 0x172
                    0x0174                  IC7BUF = 0x174
                    0x0174                  _IC7BUF = 0x174
                    0x0176                  IC7TMR = 0x176
                    0x0176                  _IC7TMR = 0x176
                    0x0178                  IC8CON1 = 0x178
                    0x0178                  _IC8CON1 = 0x178
                    0x0178                  _IC8CON1bits = 0x178
                    0x017a                  IC8CON2 = 0x17a
                    0x017a                  _IC8CON2 = 0x17a
                    0x017a                  _IC8CON2bits = 0x17a
                    0x017c                  IC8BUF = 0x17c
                    0x017c                  _IC8BUF = 0x17c
                    0x017e                  IC8TMR = 0x17e
                    0x017e                  _IC8TMR = 0x17e
                    0x0180                  IC9CON1 = 0x180
                    0x0180                  _IC9CON1 = 0x180
                    0x0180                  _IC9CON1bits = 0x180
                    0x0182                  IC9CON2 = 0x182
                    0x0182                  _IC9CON2 = 0x182
                    0x0182                  _IC9CON2bits = 0x182
                    0x0184                  IC9BUF = 0x184
                    0x0184                  _IC9BUF = 0x184
                    0x0186                  IC9TMR = 0x186
                    0x0186                  _IC9TMR = 0x186
                    0x0190                  OC1CON1 = 0x190
                    0x0190                  _OC1CON1 = 0x190
                    0x0190                  _OC1CON1bits = 0x190
                    0x0192                  OC1CON2 = 0x192
                    0x0192                  _OC1CON2 = 0x192
                    0x0192                  _OC1CON2bits = 0x192
                    0x0194                  OC1RS = 0x194
                    0x0194                  _OC1RS = 0x194
                    0x0196                  OC1R = 0x196
                    0x0196                  _OC1R = 0x196
                    0x0198                  OC1TMR = 0x198
                    0x0198                  _OC1TMR = 0x198
                    0x019a                  OC2CON1 = 0x19a
                    0x019a                  _OC2CON1 = 0x19a
                    0x019a                  _OC2CON1bits = 0x19a
                    0x019c                  OC2CON2 = 0x19c
                    0x019c                  _OC2CON2 = 0x19c
                    0x019c                  _OC2CON2bits = 0x19c
                    0x019e                  OC2RS = 0x19e
                    0x019e                  _OC2RS = 0x19e
                    0x01a0                  OC2R = 0x1a0
                    0x01a0                  _OC2R = 0x1a0
                    0x01a2                  OC2TMR = 0x1a2
                    0x01a2                  _OC2TMR = 0x1a2
                    0x01a4                  OC3CON1 = 0x1a4
                    0x01a4                  _OC3CON1 = 0x1a4
                    0x01a4                  _OC3CON1bits = 0x1a4
                    0x01a6                  OC3CON2 = 0x1a6
                    0x01a6                  _OC3CON2 = 0x1a6
                    0x01a6                  _OC3CON2bits = 0x1a6
                    0x01a8                  OC3RS = 0x1a8
                    0x01a8                  _OC3RS = 0x1a8
                    0x01aa                  OC3R = 0x1aa
                    0x01aa                  _OC3R = 0x1aa
                    0x01ac                  OC3TMR = 0x1ac
                    0x01ac                  _OC3TMR = 0x1ac
                    0x01ae                  OC4CON1 = 0x1ae
                    0x01ae                  _OC4CON1 = 0x1ae
                    0x01ae                  _OC4CON1bits = 0x1ae
                    0x01b0                  OC4CON2 = 0x1b0
                    0x01b0                  _OC4CON2 = 0x1b0
                    0x01b0                  _OC4CON2bits = 0x1b0
                    0x01b2                  OC4RS = 0x1b2
                    0x01b2                  _OC4RS = 0x1b2
                    0x01b4                  OC4R = 0x1b4
                    0x01b4                  _OC4R = 0x1b4
                    0x01b6                  OC4TMR = 0x1b6
                    0x01b6                  _OC4TMR = 0x1b6
                    0x01b8                  OC5CON1 = 0x1b8
                    0x01b8                  _OC5CON1 = 0x1b8
                    0x01b8                  _OC5CON1bits = 0x1b8
                    0x01ba                  OC5CON2 = 0x1ba
                    0x01ba                  _OC5CON2 = 0x1ba
                    0x01ba                  _OC5CON2bits = 0x1ba
                    0x01bc                  OC5RS = 0x1bc
                    0x01bc                  _OC5RS = 0x1bc
                    0x01be                  OC5R = 0x1be
                    0x01be                  _OC5R = 0x1be
                    0x01c0                  OC5TMR = 0x1c0
                    0x01c0                  _OC5TMR = 0x1c0
                    0x01c2                  OC6CON1 = 0x1c2
                    0x01c2                  _OC6CON1 = 0x1c2
                    0x01c2                  _OC6CON1bits = 0x1c2
                    0x01c4                  OC6CON2 = 0x1c4
                    0x01c4                  _OC6CON2 = 0x1c4
                    0x01c4                  _OC6CON2bits = 0x1c4
                    0x01c6                  OC6RS = 0x1c6
                    0x01c6                  _OC6RS = 0x1c6
                    0x01c8                  OC6R = 0x1c8
                    0x01c8                  _OC6R = 0x1c8
                    0x01ca                  OC6TMR = 0x1ca
                    0x01ca                  _OC6TMR = 0x1ca
                    0x01cc                  OC7CON1 = 0x1cc
                    0x01cc                  _OC7CON1 = 0x1cc
                    0x01cc                  _OC7CON1bits = 0x1cc
                    0x01ce                  OC7CON2 = 0x1ce
                    0x01ce                  _OC7CON2 = 0x1ce
                    0x01ce                  _OC7CON2bits = 0x1ce
                    0x01d0                  OC7RS = 0x1d0
                    0x01d0                  _OC7RS = 0x1d0
                    0x01d2                  OC7R = 0x1d2
                    0x01d2                  _OC7R = 0x1d2
                    0x01d4                  OC7TMR = 0x1d4
                    0x01d4                  _OC7TMR = 0x1d4
                    0x01d6                  OC8CON1 = 0x1d6
                    0x01d6                  _OC8CON1 = 0x1d6
                    0x01d6                  _OC8CON1bits = 0x1d6
                    0x01d8                  OC8CON2 = 0x1d8
                    0x01d8                  _OC8CON2 = 0x1d8
                    0x01d8                  _OC8CON2bits = 0x1d8
                    0x01da                  OC8RS = 0x1da
                    0x01da                  _OC8RS = 0x1da
                    0x01dc                  OC8R = 0x1dc
                    0x01dc                  _OC8R = 0x1dc
                    0x01de                  OC8TMR = 0x1de
                    0x01de                  _OC8TMR = 0x1de
                    0x01e0                  OC9CON1 = 0x1e0
                    0x01e0                  _OC9CON1 = 0x1e0
                    0x01e0                  _OC9CON1bits = 0x1e0
                    0x01e2                  OC9CON2 = 0x1e2
                    0x01e2                  _OC9CON2 = 0x1e2
                    0x01e2                  _OC9CON2bits = 0x1e2
                    0x01e4                  OC9RS = 0x1e4
                    0x01e4                  _OC9RS = 0x1e4
                    0x01e6                  OC9R = 0x1e6
                    0x01e6                  _OC9R = 0x1e6
                    0x01e8                  OC9TMR = 0x1e8
                    0x01e8                  _OC9TMR = 0x1e8
                    0x0200                  I2C1RCV = 0x200
                    0x0200                  _I2C1RCV = 0x200
                    0x0202                  I2C1TRN = 0x202
                    0x0202                  _I2C1TRN = 0x202
                    0x0204                  I2C1BRG = 0x204
                    0x0204                  _I2C1BRG = 0x204
                    0x0206                  I2C1CON = 0x206
                    0x0206                  _I2C1CON = 0x206
                    0x0206                  _I2C1CONbits = 0x206
                    0x0208                  I2C1STAT = 0x208
                    0x0208                  _I2C1STAT = 0x208
                    0x0208                  _I2C1STATbits = 0x208
                    0x020a                  I2C1ADD = 0x20a
                    0x020a                  _I2C1ADD = 0x20a
                    0x020c                  I2C1MSK = 0x20c
                    0x020c                  _I2C1MSK = 0x20c
                    0x0210                  I2C2RCV = 0x210
                    0x0210                  _I2C2RCV = 0x210
                    0x0212                  I2C2TRN = 0x212
                    0x0212                  _I2C2TRN = 0x212
                    0x0214                  I2C2BRG = 0x214
                    0x0214                  _I2C2BRG = 0x214
                    0x0216                  I2C2CON = 0x216
                    0x0216                  _I2C2CON = 0x216
                    0x0216                  _I2C2CONbits = 0x216
                    0x0218                  I2C2STAT = 0x218
                    0x0218                  _I2C2STAT = 0x218
                    0x0218                  _I2C2STATbits = 0x218
                    0x021a                  I2C2ADD = 0x21a
                    0x021a                  _I2C2ADD = 0x21a
                    0x021c                  I2C2MSK = 0x21c
                    0x021c                  _I2C2MSK = 0x21c
                    0x0220                  U1MODE = 0x220
                    0x0220                  _U1MODE = 0x220
                    0x0220                  _U1MODEbits = 0x220
                    0x0222                  U1STA = 0x222
                    0x0222                  _U1STA = 0x222
                    0x0222                  _U1STAbits = 0x222
                    0x0224                  U1TXREG = 0x224
                    0x0224                  _U1TXREG = 0x224
                    0x0224                  _U1TXREGbits = 0x224
                    0x0226                  U1RXREG = 0x226
                    0x0226                  _U1RXREG = 0x226
                    0x0226                  _U1RXREGbits = 0x226
                    0x0228                  U1BRG = 0x228
                    0x0228                  _U1BRG = 0x228
                    0x0230                  U2MODE = 0x230
                    0x0230                  _U2MODE = 0x230
                    0x0230                  _U2MODEbits = 0x230
                    0x0232                  U2STA = 0x232
                    0x0232                  _U2STA = 0x232
                    0x0232                  _U2STAbits = 0x232
                    0x0234                  U2TXREG = 0x234
                    0x0234                  _U2TXREG = 0x234
                    0x0234                  _U2TXREGbits = 0x234
                    0x0236                  U2RXREG = 0x236
                    0x0236                  _U2RXREG = 0x236
                    0x0236                  _U2RXREGbits = 0x236
                    0x0238                  U2BRG = 0x238
                    0x0238                  _U2BRG = 0x238
                    0x0240                  SPI1STAT = 0x240
                    0x0240                  _SPI1STAT = 0x240
                    0x0240                  _SPI1STATbits = 0x240
                    0x0242                  SPI1CON1 = 0x242
                    0x0242                  _SPI1CON1 = 0x242
                    0x0242                  _SPI1CON1bits = 0x242
                    0x0244                  SPI1CON2 = 0x244
                    0x0244                  _SPI1CON2 = 0x244
                    0x0244                  _SPI1CON2bits = 0x244
                    0x0248                  SPI1BUF = 0x248
                    0x0248                  _SPI1BUF = 0x248
                    0x0250                  U3MODE = 0x250
                    0x0250                  _U3MODE = 0x250
                    0x0250                  _U3MODEbits = 0x250
                    0x0252                  U3STA = 0x252
                    0x0252                  _U3STA = 0x252
                    0x0252                  _U3STAbits = 0x252
                    0x0254                  U3TXREG = 0x254
                    0x0254                  _U3TXREG = 0x254
                    0x0254                  _U3TXREGbits = 0x254
                    0x0256                  U3RXREG = 0x256
                    0x0256                  _U3RXREG = 0x256
                    0x0256                  _U3RXREGbits = 0x256
                    0x0258                  U3BRG = 0x258
                    0x0258                  _U3BRG = 0x258
                    0x0260                  SPI2STAT = 0x260
                    0x0260                  _SPI2STAT = 0x260
                    0x0260                  _SPI2STATbits = 0x260
                    0x0262                  SPI2CON1 = 0x262
                    0x0262                  _SPI2CON1 = 0x262
                    0x0262                  _SPI2CON1bits = 0x262
                    0x0264                  SPI2CON2 = 0x264
                    0x0264                  _SPI2CON2 = 0x264
                    0x0264                  _SPI2CON2bits = 0x264
                    0x0268                  SPI2BUF = 0x268
                    0x0268                  _SPI2BUF = 0x268
                    0x0270                  I2C3RCV = 0x270
                    0x0270                  _I2C3RCV = 0x270
                    0x0272                  I2C3TRN = 0x272
                    0x0272                  _I2C3TRN = 0x272
                    0x0274                  I2C3BRG = 0x274
                    0x0274                  _I2C3BRG = 0x274
                    0x0276                  I2C3CON = 0x276
                    0x0276                  _I2C3CON = 0x276
                    0x0276                  _I2C3CONbits = 0x276
                    0x0278                  I2C3STAT = 0x278
                    0x0278                  _I2C3STAT = 0x278
                    0x0278                  _I2C3STATbits = 0x278
                    0x027a                  I2C3ADD = 0x27a
                    0x027a                  _I2C3ADD = 0x27a
                    0x027c                  I2C3MSK = 0x27c
                    0x027c                  _I2C3MSK = 0x27c
                    0x0280                  SPI3STAT = 0x280
                    0x0280                  _SPI3STAT = 0x280
                    0x0280                  _SPI3STATbits = 0x280
                    0x0282                  SPI3CON1 = 0x282
                    0x0282                  _SPI3CON1 = 0x282
                    0x0282                  _SPI3CON1bits = 0x282
                    0x0284                  SPI3CON2 = 0x284
                    0x0284                  _SPI3CON2 = 0x284
                    0x0284                  _SPI3CON2bits = 0x284
                    0x0288                  SPI3BUF = 0x288
                    0x0288                  _SPI3BUF = 0x288
                    0x02b0                  U4MODE = 0x2b0
                    0x02b0                  _U4MODE = 0x2b0
                    0x02b0                  _U4MODEbits = 0x2b0
                    0x02b2                  U4STA = 0x2b2
                    0x02b2                  _U4STA = 0x2b2
                    0x02b2                  _U4STAbits = 0x2b2
                    0x02b4                  U4TXREG = 0x2b4
                    0x02b4                  _U4TXREG = 0x2b4
                    0x02b4                  _U4TXREGbits = 0x2b4
                    0x02b6                  U4RXREG = 0x2b6
                    0x02b6                  _U4RXREG = 0x2b6
                    0x02b6                  _U4RXREGbits = 0x2b6
                    0x02b8                  U4BRG = 0x2b8
                    0x02b8                  _U4BRG = 0x2b8
                    0x02c8                  TRISB = 0x2c8
                    0x02c8                  _TRISB = 0x2c8
                    0x02c8                  _TRISBbits = 0x2c8
                    0x02ca                  PORTB = 0x2ca
                    0x02ca                  _PORTB = 0x2ca
                    0x02ca                  _PORTBbits = 0x2ca
                    0x02cc                  LATB = 0x2cc
                    0x02cc                  _LATB = 0x2cc
                    0x02cc                  _LATBbits = 0x2cc
                    0x02ce                  ODCB = 0x2ce
                    0x02ce                  _ODCB = 0x2ce
                    0x02ce                  _ODCBbits = 0x2ce
                    0x02d0                  TRISC = 0x2d0
                    0x02d0                  _TRISC = 0x2d0
                    0x02d0                  _TRISCbits = 0x2d0
                    0x02d2                  PORTC = 0x2d2
                    0x02d2                  _PORTC = 0x2d2
                    0x02d2                  _PORTCbits = 0x2d2
                    0x02d4                  LATC = 0x2d4
                    0x02d4                  _LATC = 0x2d4
                    0x02d4                  _LATCbits = 0x2d4
                    0x02d6                  ODCC = 0x2d6
                    0x02d6                  _ODCC = 0x2d6
                    0x02d6                  _ODCCbits = 0x2d6
                    0x02d8                  TRISD = 0x2d8
                    0x02d8                  _TRISD = 0x2d8
                    0x02d8                  _TRISDbits = 0x2d8
                    0x02da                  PORTD = 0x2da
                    0x02da                  _PORTD = 0x2da
                    0x02da                  _PORTDbits = 0x2da
                    0x02dc                  LATD = 0x2dc
                    0x02dc                  _LATD = 0x2dc
                    0x02dc                  _LATDbits = 0x2dc
                    0x02de                  ODCD = 0x2de
                    0x02de                  _ODCD = 0x2de
                    0x02de                  _ODCDbits = 0x2de
                    0x02e0                  TRISE = 0x2e0
                    0x02e0                  _TRISE = 0x2e0
                    0x02e0                  _TRISEbits = 0x2e0
                    0x02e2                  PORTE = 0x2e2
                    0x02e2                  _PORTE = 0x2e2
                    0x02e2                  _PORTEbits = 0x2e2
                    0x02e4                  LATE = 0x2e4
                    0x02e4                  _LATE = 0x2e4
                    0x02e4                  _LATEbits = 0x2e4
                    0x02e6                  ODCE = 0x2e6
                    0x02e6                  _ODCE = 0x2e6
                    0x02e6                  _ODCEbits = 0x2e6
                    0x02e8                  TRISF = 0x2e8
                    0x02e8                  _TRISF = 0x2e8
                    0x02e8                  _TRISFbits = 0x2e8
                    0x02ea                  PORTF = 0x2ea
                    0x02ea                  _PORTF = 0x2ea
                    0x02ea                  _PORTFbits = 0x2ea
                    0x02ec                  LATF = 0x2ec
                    0x02ec                  _LATF = 0x2ec
                    0x02ec                  _LATFbits = 0x2ec
                    0x02ee                  ODCF = 0x2ee
                    0x02ee                  _ODCF = 0x2ee
                    0x02ee                  _ODCFbits = 0x2ee
                    0x02f0                  TRISG = 0x2f0
                    0x02f0                  _TRISG = 0x2f0
                    0x02f0                  _TRISGbits = 0x2f0
                    0x02f2                  PORTG = 0x2f2
                    0x02f2                  _PORTG = 0x2f2
                    0x02f2                  _PORTGbits = 0x2f2
                    0x02f4                  LATG = 0x2f4
                    0x02f4                  _LATG = 0x2f4
                    0x02f4                  _LATGbits = 0x2f4
                    0x02f6                  ODCG = 0x2f6
                    0x02f6                  _ODCG = 0x2f6
                    0x02f6                  _ODCGbits = 0x2f6
                    0x02fc                  PADCFG1 = 0x2fc
                    0x02fc                  _PADCFG1 = 0x2fc
                    0x02fc                  _PADCFG1bits = 0x2fc
                    0x0300                  ADC1BUF0 = 0x300
                    0x0300                  _ADC1BUF0 = 0x300
                    0x0302                  ADC1BUF1 = 0x302
                    0x0302                  _ADC1BUF1 = 0x302
                    0x0304                  ADC1BUF2 = 0x304
                    0x0304                  _ADC1BUF2 = 0x304
                    0x0306                  ADC1BUF3 = 0x306
                    0x0306                  _ADC1BUF3 = 0x306
                    0x0308                  ADC1BUF4 = 0x308
                    0x0308                  _ADC1BUF4 = 0x308
                    0x030a                  ADC1BUF5 = 0x30a
                    0x030a                  _ADC1BUF5 = 0x30a
                    0x030c                  ADC1BUF6 = 0x30c
                    0x030c                  _ADC1BUF6 = 0x30c
                    0x030e                  ADC1BUF7 = 0x30e
                    0x030e                  _ADC1BUF7 = 0x30e
                    0x0310                  ADC1BUF8 = 0x310
                    0x0310                  _ADC1BUF8 = 0x310
                    0x0312                  ADC1BUF9 = 0x312
                    0x0312                  _ADC1BUF9 = 0x312
                    0x0314                  ADC1BUFA = 0x314
                    0x0314                  _ADC1BUFA = 0x314
                    0x0316                  ADC1BUFB = 0x316
                    0x0316                  _ADC1BUFB = 0x316
                    0x0318                  ADC1BUFC = 0x318
                    0x0318                  _ADC1BUFC = 0x318
                    0x031a                  ADC1BUFD = 0x31a
                    0x031a                  _ADC1BUFD = 0x31a
                    0x031c                  ADC1BUFE = 0x31c
                    0x031c                  _ADC1BUFE = 0x31c
                    0x031e                  ADC1BUFF = 0x31e
                    0x031e                  _ADC1BUFF = 0x31e
                    0x0320                  AD1CON1 = 0x320
                    0x0320                  _AD1CON1 = 0x320
                    0x0320                  _AD1CON1bits = 0x320
                    0x0322                  AD1CON2 = 0x322
                    0x0322                  _AD1CON2 = 0x322
                    0x0322                  _AD1CON2bits = 0x322
                    0x0324                  AD1CON3 = 0x324
                    0x0324                  _AD1CON3 = 0x324
                    0x0324                  _AD1CON3bits = 0x324
                    0x0328                  AD1CHS = 0x328
                    0x0328                  _AD1CHS = 0x328
                    0x0328                  _AD1CHSbits = 0x328
                    0x0328                  AD1CHS0 = 0x328
                    0x0328                  _AD1CHS0 = 0x328
                    0x0328                  _AD1CHS0bits = 0x328
                    0x032e                  AD1CSSH = 0x32e
                    0x032e                  _AD1CSSH = 0x32e
                    0x032e                  _AD1CSSHbits = 0x32e
                    0x0330                  AD1CSSL = 0x330
                    0x0330                  _AD1CSSL = 0x330
                    0x0330                  _AD1CSSLbits = 0x330
                    0x033c                  CTMUCON = 0x33c
                    0x033c                  _CTMUCON = 0x33c
                    0x033c                  _CTMUCONbits = 0x33c
                    0x033e                  CTMUICON = 0x33e
                    0x033e                  _CTMUICON = 0x33e
                    0x033e                  _CTMUICONbits = 0x33e
                    0x0340                  ADC1BUF10 = 0x340
                    0x0340                  _ADC1BUF10 = 0x340
                    0x0342                  ADC1BUF11 = 0x342
                    0x0342                  _ADC1BUF11 = 0x342
                    0x0344                  ADC1BUF12 = 0x344
                    0x0344                  _ADC1BUF12 = 0x344
                    0x0346                  ADC1BUF13 = 0x346
                    0x0346                  _ADC1BUF13 = 0x346
                    0x0348                  ADC1BUF14 = 0x348
                    0x0348                  _ADC1BUF14 = 0x348
                    0x034a                  ADC1BUF15 = 0x34a
                    0x034a                  _ADC1BUF15 = 0x34a
                    0x034c                  ADC1BUF16 = 0x34c
                    0x034c                  _ADC1BUF16 = 0x34c
                    0x034e                  ADC1BUF17 = 0x34e
                    0x034e                  _ADC1BUF17 = 0x34e
                    0x0350                  ADC1BUF18 = 0x350
                    0x0350                  _ADC1BUF18 = 0x350
                    0x0352                  ADC1BUF19 = 0x352
                    0x0352                  _ADC1BUF19 = 0x352
                    0x0354                  ADC1BUF1A = 0x354
                    0x0354                  _ADC1BUF1A = 0x354
                    0x0356                  ADC1BUF1B = 0x356
                    0x0356                  _ADC1BUF1B = 0x356
                    0x0358                  ADC1BUF1C = 0x358
                    0x0358                  _ADC1BUF1C = 0x358
                    0x035a                  ADC1BUF1D = 0x35a
                    0x035a                  _ADC1BUF1D = 0x35a
                    0x035c                  ADC1BUF1E = 0x35c
                    0x035c                  _ADC1BUF1E = 0x35c
                    0x035e                  ADC1BUF1F = 0x35e
                    0x035e                  _ADC1BUF1F = 0x35e
                    0x0480                  U1OTGIR = 0x480
                    0x0480                  _U1OTGIR = 0x480
                    0x0480                  _U1OTGIRbits = 0x480
                    0x0482                  U1OTGIE = 0x482
                    0x0482                  _U1OTGIE = 0x482
                    0x0482                  _U1OTGIEbits = 0x482
                    0x0484                  U1OTGSTAT = 0x484
                    0x0484                  _U1OTGSTAT = 0x484
                    0x0484                  _U1OTGSTATbits = 0x484
                    0x0486                  U1OTGCON = 0x486
                    0x0486                  _U1OTGCON = 0x486
                    0x0486                  _U1OTGCONbits = 0x486
                    0x0488                  U1PWRC = 0x488
                    0x0488                  _U1PWRC = 0x488
                    0x0488                  _U1PWRCbits = 0x488
                    0x048a                  U1IR = 0x48a
                    0x048a                  _U1IR = 0x48a
                    0x048a                  _U1IRbits = 0x48a
                    0x048c                  U1IE = 0x48c
                    0x048c                  _U1IE = 0x48c
                    0x048c                  _U1IEbits = 0x48c
                    0x048e                  U1EIR = 0x48e
                    0x048e                  _U1EIR = 0x48e
                    0x048e                  _U1EIRbits = 0x48e
                    0x0490                  U1EIE = 0x490
                    0x0490                  _U1EIE = 0x490
                    0x0490                  _U1EIEbits = 0x490
                    0x0492                  U1STAT = 0x492
                    0x0492                  _U1STAT = 0x492
                    0x0492                  _U1STATbits = 0x492
                    0x0494                  U1CON = 0x494
                    0x0494                  _U1CON = 0x494
                    0x0494                  _U1CONbits = 0x494
                    0x0496                  U1ADDR = 0x496
                    0x0496                  _U1ADDR = 0x496
                    0x0496                  _U1ADDRbits = 0x496
                    0x0498                  U1BDTP1 = 0x498
                    0x0498                  _U1BDTP1 = 0x498
                    0x0498                  _U1BDTP1bits = 0x498
                    0x049a                  U1FRML = 0x49a
                    0x049a                  _U1FRML = 0x49a
                    0x049a                  _U1FRMLbits = 0x49a
                    0x049c                  U1FRMH = 0x49c
                    0x049c                  _U1FRMH = 0x49c
                    0x049c                  _U1FRMHbits = 0x49c
                    0x049e                  U1TOK = 0x49e
                    0x049e                  _U1TOK = 0x49e
                    0x049e                  _U1TOKbits = 0x49e
                    0x04a0                  U1SOF = 0x4a0
                    0x04a0                  _U1SOF = 0x4a0
                    0x04a0                  _U1SOFbits = 0x4a0
                    0x04a6                  U1CNFG1 = 0x4a6
                    0x04a6                  _U1CNFG1 = 0x4a6
                    0x04a6                  _U1CNFG1bits = 0x4a6
                    0x04a8                  U1CNFG2 = 0x4a8
                    0x04a8                  _U1CNFG2 = 0x4a8
                    0x04a8                  _U1CNFG2bits = 0x4a8
                    0x04aa                  U1EP0 = 0x4aa
                    0x04aa                  _U1EP0 = 0x4aa
                    0x04aa                  _U1EP0bits = 0x4aa
                    0x04ac                  U1EP1 = 0x4ac
                    0x04ac                  _U1EP1 = 0x4ac
                    0x04ac                  _U1EP1bits = 0x4ac
                    0x04ae                  U1EP2 = 0x4ae
                    0x04ae                  _U1EP2 = 0x4ae
                    0x04ae                  _U1EP2bits = 0x4ae
                    0x04b0                  U1EP3 = 0x4b0
                    0x04b0                  _U1EP3 = 0x4b0
                    0x04b0                  _U1EP3bits = 0x4b0
                    0x04b2                  U1EP4 = 0x4b2
                    0x04b2                  _U1EP4 = 0x4b2
                    0x04b2                  _U1EP4bits = 0x4b2
                    0x04b4                  U1EP5 = 0x4b4
                    0x04b4                  _U1EP5 = 0x4b4
                    0x04b4                  _U1EP5bits = 0x4b4
                    0x04b6                  U1EP6 = 0x4b6
                    0x04b6                  _U1EP6 = 0x4b6
                    0x04b6                  _U1EP6bits = 0x4b6
                    0x04b8                  U1EP7 = 0x4b8
                    0x04b8                  _U1EP7 = 0x4b8
                    0x04b8                  _U1EP7bits = 0x4b8
                    0x04ba                  U1EP8 = 0x4ba
                    0x04ba                  _U1EP8 = 0x4ba
                    0x04ba                  _U1EP8bits = 0x4ba
                    0x04bc                  U1EP9 = 0x4bc
                    0x04bc                  _U1EP9 = 0x4bc
                    0x04bc                  _U1EP9bits = 0x4bc
                    0x04be                  U1EP10 = 0x4be
                    0x04be                  _U1EP10 = 0x4be
                    0x04be                  _U1EP10bits = 0x4be
                    0x04c0                  U1EP11 = 0x4c0
                    0x04c0                  _U1EP11 = 0x4c0
                    0x04c0                  _U1EP11bits = 0x4c0
                    0x04c2                  U1EP12 = 0x4c2
                    0x04c2                  _U1EP12 = 0x4c2
                    0x04c2                  _U1EP12bits = 0x4c2
                    0x04c4                  U1EP13 = 0x4c4
                    0x04c4                  _U1EP13 = 0x4c4
                    0x04c4                  _U1EP13bits = 0x4c4
                    0x04c6                  U1EP14 = 0x4c6
                    0x04c6                  _U1EP14 = 0x4c6
                    0x04c6                  _U1EP14bits = 0x4c6
                    0x04c8                  U1EP15 = 0x4c8
                    0x04c8                  _U1EP15 = 0x4c8
                    0x04c8                  _U1EP15bits = 0x4c8
                    0x04cc                  U1PWMRRS = 0x4cc
                    0x04cc                  _U1PWMRRS = 0x4cc
                    0x04cc                  _U1PWMRRSbits = 0x4cc
                    0x04ce                  U1PWMCON = 0x4ce
                    0x04ce                  _U1PWMCON = 0x4ce
                    0x04ce                  _U1PWMCONbits = 0x4ce
                    0x04de                  ANCFG = 0x4de
                    0x04de                  _ANCFG = 0x4de
                    0x04de                  _ANCFGbits = 0x4de
                    0x04e2                  ANSB = 0x4e2
                    0x04e2                  _ANSB = 0x4e2
                    0x04e2                  _ANSBbits = 0x4e2
                    0x04e4                  ANSC = 0x4e4
                    0x04e4                  _ANSC = 0x4e4
                    0x04e4                  _ANSCbits = 0x4e4
                    0x04e6                  ANSD = 0x4e6
                    0x04e6                  _ANSD = 0x4e6
                    0x04e6                  _ANSDbits = 0x4e6
                    0x04ea                  ANSF = 0x4ea
                    0x04ea                  _ANSF = 0x4ea
                    0x04ea                  _ANSFbits = 0x4ea
                    0x04ec                  ANSG = 0x4ec
                    0x04ec                  _ANSG = 0x4ec
                    0x04ec                  _ANSGbits = 0x4ec
                    0x0600                  PMCON1 = 0x600
                    0x0600                  _PMCON1 = 0x600
                    0x0600                  _PMCON1bits = 0x600
                    0x0602                  PMCON2 = 0x602
                    0x0602                  _PMCON2 = 0x602
                    0x0602                  _PMCON2bits = 0x602
                    0x0604                  PMCON3 = 0x604
                    0x0604                  _PMCON3 = 0x604
                    0x0604                  _PMCON3bits = 0x604
                    0x0606                  PMCON4 = 0x606
                    0x0606                  _PMCON4 = 0x606
                    0x0606                  _PMCON4bits = 0x606
                    0x0608                  PMCS1CF = 0x608
                    0x0608                  _PMCS1CF = 0x608
                    0x0608                  _PMCS1CFbits = 0x608
                    0x060a                  PMCS1BS = 0x60a
                    0x060a                  _PMCS1BS = 0x60a
                    0x060a                  _PMCS1BSbits = 0x60a
                    0x060c                  PMCS1MD = 0x60c
                    0x060c                  _PMCS1MD = 0x60c
                    0x060c                  _PMCS1MDbits = 0x60c
                    0x060e                  PMCS2CF = 0x60e
                    0x060e                  _PMCS2CF = 0x60e
                    0x060e                  _PMCS2CFbits = 0x60e
                    0x0610                  PMCS2BS = 0x610
                    0x0610                  _PMCS2BS = 0x610
                    0x0610                  _PMCS2BSbits = 0x610
                    0x0612                  PMCS2MD = 0x612
                    0x0612                  _PMCS2MD = 0x612
                    0x0612                  _PMCS2MDbits = 0x612
                    0x0614                  PMDOUT1 = 0x614
                    0x0614                  _PMDOUT1 = 0x614
                    0x0616                  PMDOUT2 = 0x616
                    0x0616                  _PMDOUT2 = 0x616
                    0x0618                  PMDIN1 = 0x618
                    0x0618                  _PMDIN1 = 0x618
                    0x061a                  PMDIN2 = 0x61a
                    0x061a                  _PMDIN2 = 0x61a
                    0x061c                  PMSTAT = 0x61c
                    0x061c                  _PMSTAT = 0x61c
                    0x061c                  _PMSTATbits = 0x61c
                    0x0620                  ALRMVAL = 0x620
                    0x0620                  _ALRMVAL = 0x620
                    0x0622                  ALCFGRPT = 0x622
                    0x0622                  _ALCFGRPT = 0x622
                    0x0622                  _ALCFGRPTbits = 0x622
                    0x0624                  RTCVAL = 0x624
                    0x0624                  _RTCVAL = 0x624
                    0x0626                  RCFGCAL = 0x626
                    0x0626                  _RCFGCAL = 0x626
                    0x0626                  _RCFGCALbits = 0x626
                    0x0630                  CMSTAT = 0x630
                    0x0630                  _CMSTAT = 0x630
                    0x0630                  _CMSTATbits = 0x630
                    0x0632                  CVRCON = 0x632
                    0x0632                  _CVRCON = 0x632
                    0x0632                  _CVRCONbits = 0x632
                    0x0634                  CM1CON = 0x634
                    0x0634                  _CM1CON = 0x634
                    0x0634                  _CM1CONbits = 0x634
                    0x0636                  CM2CON = 0x636
                    0x0636                  _CM2CON = 0x636
                    0x0636                  _CM2CONbits = 0x636
                    0x0638                  CM3CON = 0x638
                    0x0638                  _CM3CON = 0x638
                    0x0638                  _CM3CONbits = 0x638
                    0x0640                  CRCCON1 = 0x640
                    0x0640                  _CRCCON1 = 0x640
                    0x0640                  _CRCCON1bits = 0x640
                    0x0642                  CRCCON2 = 0x642
                    0x0642                  _CRCCON2 = 0x642
                    0x0642                  _CRCCON2bits = 0x642
                    0x0644                  CRCXORL = 0x644
                    0x0644                  _CRCXORL = 0x644
                    0x0644                  _CRCXORLbits = 0x644
                    0x0646                  CRCXORH = 0x646
                    0x0646                  _CRCXORH = 0x646
                    0x0646                  _CRCXORHbits = 0x646
                    0x0648                  CRCDATL = 0x648
                    0x0648                  _CRCDATL = 0x648
                    0x064a                  CRCDATH = 0x64a
                    0x064a                  _CRCDATH = 0x64a
                    0x064c                  CRCWDATL = 0x64c
                    0x064c                  _CRCWDATL = 0x64c
                    0x064e                  CRCWDATH = 0x64e
                    0x064e                  _CRCWDATH = 0x64e
                    0x0680                  RPINR0 = 0x680
                    0x0680                  _RPINR0 = 0x680
                    0x0680                  _RPINR0bits = 0x680
                    0x0682                  RPINR1 = 0x682
                    0x0682                  _RPINR1 = 0x682
                    0x0682                  _RPINR1bits = 0x682
                    0x0684                  RPINR2 = 0x684
                    0x0684                  _RPINR2 = 0x684
                    0x0684                  _RPINR2bits = 0x684
                    0x0686                  RPINR3 = 0x686
                    0x0686                  _RPINR3 = 0x686
                    0x0686                  _RPINR3bits = 0x686
                    0x0688                  RPINR4 = 0x688
                    0x0688                  _RPINR4 = 0x688
                    0x0688                  _RPINR4bits = 0x688
                    0x068e                  RPINR7 = 0x68e
                    0x068e                  _RPINR7 = 0x68e
                    0x068e                  _RPINR7bits = 0x68e
                    0x0690                  RPINR8 = 0x690
                    0x0690                  _RPINR8 = 0x690
                    0x0690                  _RPINR8bits = 0x690
                    0x0692                  RPINR9 = 0x692
                    0x0692                  _RPINR9 = 0x692
                    0x0692                  _RPINR9bits = 0x692
                    0x0694                  RPINR10 = 0x694
                    0x0694                  _RPINR10 = 0x694
                    0x0694                  _RPINR10bits = 0x694
                    0x0696                  RPINR11 = 0x696
                    0x0696                  _RPINR11 = 0x696
                    0x0696                  _RPINR11bits = 0x696
                    0x069e                  RPINR15 = 0x69e
                    0x069e                  _RPINR15 = 0x69e
                    0x069e                  _RPINR15bits = 0x69e
                    0x06a2                  RPINR17 = 0x6a2
                    0x06a2                  _RPINR17 = 0x6a2
                    0x06a2                  _RPINR17bits = 0x6a2
                    0x06a4                  RPINR18 = 0x6a4
                    0x06a4                  _RPINR18 = 0x6a4
                    0x06a4                  _RPINR18bits = 0x6a4
                    0x06a6                  RPINR19 = 0x6a6
                    0x06a6                  _RPINR19 = 0x6a6
                    0x06a6                  _RPINR19bits = 0x6a6
                    0x06a8                  RPINR20 = 0x6a8
                    0x06a8                  _RPINR20 = 0x6a8
                    0x06a8                  _RPINR20bits = 0x6a8
                    0x06aa                  RPINR21 = 0x6aa
                    0x06aa                  _RPINR21 = 0x6aa
                    0x06aa                  _RPINR21bits = 0x6aa
                    0x06ac                  RPINR22 = 0x6ac
                    0x06ac                  _RPINR22 = 0x6ac
                    0x06ac                  _RPINR22bits = 0x6ac
                    0x06ae                  RPINR23 = 0x6ae
                    0x06ae                  _RPINR23 = 0x6ae
                    0x06ae                  _RPINR23bits = 0x6ae
                    0x06b6                  RPINR27 = 0x6b6
                    0x06b6                  _RPINR27 = 0x6b6
                    0x06b6                  _RPINR27bits = 0x6b6
                    0x06b8                  RPINR28 = 0x6b8
                    0x06b8                  _RPINR28 = 0x6b8
                    0x06b8                  _RPINR28bits = 0x6b8
                    0x06ba                  RPINR29 = 0x6ba
                    0x06ba                  _RPINR29 = 0x6ba
                    0x06ba                  _RPINR29bits = 0x6ba
                    0x06c0                  RPOR0 = 0x6c0
                    0x06c0                  _RPOR0 = 0x6c0
                    0x06c0                  _RPOR0bits = 0x6c0
                    0x06c2                  RPOR1 = 0x6c2
                    0x06c2                  _RPOR1 = 0x6c2
                    0x06c2                  _RPOR1bits = 0x6c2
                    0x06c4                  RPOR2 = 0x6c4
                    0x06c4                  _RPOR2 = 0x6c4
                    0x06c4                  _RPOR2bits = 0x6c4
                    0x06c6                  RPOR3 = 0x6c6
                    0x06c6                  _RPOR3 = 0x6c6
                    0x06c6                  _RPOR3bits = 0x6c6
                    0x06c8                  RPOR4 = 0x6c8
                    0x06c8                  _RPOR4 = 0x6c8
                    0x06c8                  _RPOR4bits = 0x6c8
                    0x06ca                  RPOR5 = 0x6ca
                    0x06ca                  _RPOR5 = 0x6ca
                    0x06ca                  _RPOR5bits = 0x6ca
                    0x06cc                  RPOR6 = 0x6cc
                    0x06cc                  _RPOR6 = 0x6cc
                    0x06cc                  _RPOR6bits = 0x6cc
                    0x06ce                  RPOR7 = 0x6ce
                    0x06ce                  _RPOR7 = 0x6ce
                    0x06ce                  _RPOR7bits = 0x6ce
                    0x06d0                  RPOR8 = 0x6d0
                    0x06d0                  _RPOR8 = 0x6d0
                    0x06d0                  _RPOR8bits = 0x6d0
                    0x06d2                  RPOR9 = 0x6d2
                    0x06d2                  _RPOR9 = 0x6d2
                    0x06d2                  _RPOR9bits = 0x6d2
                    0x06d4                  RPOR10 = 0x6d4
                    0x06d4                  _RPOR10 = 0x6d4
                    0x06d4                  _RPOR10bits = 0x6d4
                    0x06d6                  RPOR11 = 0x6d6
                    0x06d6                  _RPOR11 = 0x6d6
                    0x06d6                  _RPOR11bits = 0x6d6
                    0x06d8                  RPOR12 = 0x6d8
                    0x06d8                  _RPOR12 = 0x6d8
                    0x06d8                  _RPOR12bits = 0x6d8
                    0x06da                  RPOR13 = 0x6da
                    0x06da                  _RPOR13 = 0x6da
                    0x06da                  _RPOR13bits = 0x6da
                    0x06dc                  RPOR14 = 0x6dc
                    0x06dc                  _RPOR14 = 0x6dc
                    0x06dc                  _RPOR14bits = 0x6dc
                    0x0740                  RCON = 0x740
                    0x0740                  _RCON = 0x740
                    0x0740                  _RCONbits = 0x740
                    0x0742                  OSCCON = 0x742
                    0x0742                  _OSCCON = 0x742
                    0x0742                  _OSCCONbits = 0x742
                    0x0742                  OSCCONL = 0x742
                    0x0742                  _OSCCONL = 0x742
                    0x0743                  OSCCONH = 0x743
                    0x0743                  _OSCCONH = 0x743
                    0x0744                  CLKDIV = 0x744
                    0x0744                  _CLKDIV = 0x744
                    0x0744                  _CLKDIVbits = 0x744
                    0x0748                  OSCTUN = 0x748
                    0x0748                  _OSCTUN = 0x748
                    0x0748                  _OSCTUNbits = 0x748
                    0x074e                  REFOCON = 0x74e
                    0x074e                  _REFOCON = 0x74e
                    0x074e                  _REFOCONbits = 0x74e
                    0x0760                  NVMCON = 0x760
                    0x0760                  _NVMCON = 0x760
                    0x0760                  _NVMCONbits = 0x760
                    0x0766                  NVMKEY = 0x766
                    0x0766                  _NVMKEY = 0x766
                    0x0770                  PMD1 = 0x770
                    0x0770                  _PMD1 = 0x770
                    0x0770                  _PMD1bits = 0x770
                    0x0772                  PMD2 = 0x772
                    0x0772                  _PMD2 = 0x772
                    0x0772                  _PMD2bits = 0x772
                    0x0774                  PMD3 = 0x774
                    0x0774                  _PMD3 = 0x774
                    0x0774                  _PMD3bits = 0x774
                    0x0776                  PMD4 = 0x776
                    0x0776                  _PMD4 = 0x776
                    0x0776                  _PMD4bits = 0x776
                    0x0778                  PMD5 = 0x778
                    0x0778                  _PMD5 = 0x778
                    0x0778                  _PMD5bits = 0x778
                    0x077a                  PMD6 = 0x77a
                    0x077a                  _PMD6 = 0x77a
                    0x077a                  _PMD6bits = 0x77a
                    0x0144                  IC1 = 0x144
                    0x0144                  _IC1 = 0x144
                    0x014c                  IC2 = 0x14c
                    0x014c                  _IC2 = 0x14c
                    0x0154                  IC3 = 0x154
                    0x0154                  _IC3 = 0x154
                    0x015c                  IC4 = 0x15c
                    0x015c                  _IC4 = 0x15c
                    0x0164                  IC5 = 0x164
                    0x0164                  _IC5 = 0x164
                    0x016c                  IC6 = 0x16c
                    0x016c                  _IC6 = 0x16c
                    0x0174                  IC7 = 0x174
                    0x0174                  _IC7 = 0x174
                    0x017c                  IC8 = 0x17c
                    0x017c                  _IC8 = 0x17c
                    0x0194                  OC1 = 0x194
                    0x0194                  _OC1 = 0x194
                    0x019e                  OC2 = 0x19e
                    0x019e                  _OC2 = 0x19e
                    0x01a8                  OC3 = 0x1a8
                    0x01a8                  _OC3 = 0x1a8
                    0x01b2                  OC4 = 0x1b2
                    0x01b2                  _OC4 = 0x1b2
                    0x01bc                  OC5 = 0x1bc
                    0x01bc                  _OC5 = 0x1bc
                    0x01c6                  OC6 = 0x1c6
                    0x01c6                  _OC6 = 0x1c6
                    0x01d0                  OC7 = 0x1d0
                    0x01d0                  _OC7 = 0x1d0
                    0x01da                  OC8 = 0x1da
                    0x01da                  _OC8 = 0x1da
                    0x0240                  SPI1 = 0x240
                    0x0240                  _SPI1 = 0x240
                    0x0260                  SPI2 = 0x260
                    0x0260                  _SPI2 = 0x260
                    0x0220                  UART1 = 0x220
                    0x0220                  _UART1 = 0x220
                    0x0230                  UART2 = 0x230
                    0x0230                  _UART2 = 0x230
                    0x0001                  __MPLAB_BUILD = 0x1
LOAD c:/program files (x86)/microchip/mplab c30/bin/bin/../../lib\libpic30-coff.a
LOAD c:/program files (x86)/microchip/mplab c30/bin/bin/../../lib\libc-coff.a
LOAD c:/program files (x86)/microchip/mplab c30/bin/bin/../../lib\libm-coff.a
START GROUP
LOAD c:/program files (x86)/microchip/mplab c30/bin/bin/../../lib\libpic30-coff.a
LOAD c:/program files (x86)/microchip/mplab c30/bin/bin/../../lib\libm-coff.a
LOAD c:/program files (x86)/microchip/mplab c30/bin/bin/../../lib\libc-coff.a
END GROUP
OUTPUT(D:\JOBs\openPicus\new projects\Tutorial\hack_a_fridge_alarm\Obj\a.cof coff-pic30)
LOAD jump_table
LOAD data_init

__c30_signature
                  0x000000        0x384
 __c30_signature
                  0x000000          0x6 Announce.o
 __c30_signature
                  0x000006          0x6 ARCFOUR.o
 __c30_signature
                  0x00000c          0x6 ARP.o
 __c30_signature
                  0x000012          0x6 ARPlib.o
 __c30_signature
                  0x000018          0x6 BigInt.o
 __c30_signature
                  0x00001e          0x6 Delay.o
 __c30_signature
                  0x000024          0x6 DHCP.o
 __c30_signature
                  0x00002a          0x6 DHCPs.o
 __c30_signature
                  0x000030          0x6 DNS.o
 __c30_signature
                  0x000036          0x6 DNSs.o
 __c30_signature
                  0x00003c          0x6 DynDNS.o
 __c30_signature
                  0x000042          0x6 ENCX24J600.o
 __c30_signature
                  0x000048          0x6 FTP.o
 __c30_signature
                  0x00004e          0x6 FTPlib.o
 __c30_signature
                  0x000054          0x6 Hashes.o
 __c30_signature
                  0x00005a          0x6 heap_2.o
 __c30_signature
                  0x000060          0x6 Helpers.o
 __c30_signature
                  0x000066          0x6 HTTP2.o
 __c30_signature
                  0x00006c          0x6 HTTPApp.o
 __c30_signature
                  0x000072          0x6 HWInit.o
 __c30_signature
                  0x000078          0x6 HWlib.o
 __c30_signature
                  0x00007e          0x6 ICMP.o
 __c30_signature
                  0x000084          0x6 INTlib.o
 __c30_signature
                  0x00008a          0x6 IP.o
 __c30_signature
                  0x000090          0x6 ISRs.o
 __c30_signature
                  0x000096          0x6 list.o
 __c30_signature
                  0x00009c          0x6 Main.o
 __c30_signature
                  0x0000a2          0x6 MPFS2.o
 __c30_signature
                  0x0000a8          0x6 NBNS.o
 __c30_signature
                  0x0000ae          0x6 NETlib.o
 __c30_signature
                  0x0000b4          0x6 port.o
 __c30_signature
                  0x0000ba          0x6 queue.o
 __c30_signature
                  0x0000c0          0x6 Random.o
 __c30_signature
                  0x0000c6          0x6 Reboot.o
 __c30_signature
                  0x0000cc          0x6 Regs.o
 __c30_signature
                  0x0000d2          0x6 RSA.o
 __c30_signature
                  0x0000d8          0x6 RTCClib.o
 __c30_signature
                  0x0000de          0x6 SMTP.o
 __c30_signature
                  0x0000e4          0x6 SMTPlib.o
 __c30_signature
                  0x0000ea          0x6 SNTP.o
 __c30_signature
                  0x0000f0          0x6 SPIFlash.o
 __c30_signature
                  0x0000f6          0x6 SSL.o
 __c30_signature
                  0x0000fc          0x6 StackTsk.o
 __c30_signature
                  0x000102          0x6 taskFlyport.o
 __c30_signature
                  0x000108          0x6 tasks.o
 __c30_signature
                  0x00010e          0x6 TCP.o
 __c30_signature
                  0x000114          0x6 TCPIP_Utils.o
 __c30_signature
                  0x00011a          0x6 TCPlib.o
 __c30_signature
                  0x000120          0x6 Tick.o
 __c30_signature
                  0x000126          0x6 UDP.o
 __c30_signature
                  0x00012c          0x6 UDPlib.o
 __c30_signature
                  0x000132          0x6 WFConnectionAlgorithm.o
 __c30_signature
                  0x000138          0x6 WFConnectionManager.o
 __c30_signature
                  0x00013e          0x6 WFConnectionProfile.o
 __c30_signature
                  0x000144          0x6 WFDataTxRx.o
 __c30_signature
                  0x00014a          0x6 WFDebugStrings.o
 __c30_signature
                  0x000150          0x6 WFDriverCom.o
 __c30_signature
                  0x000156          0x6 WFDriverCom_24G.o
 __c30_signature
                  0x00015c          0x6 WFDriverRaw.o
 __c30_signature
                  0x000162          0x6 WFDriverRaw_24G.o
 __c30_signature
                  0x000168          0x6 WFEventHandler.o
 __c30_signature
                  0x00016e          0x6 WFInit.o
 __c30_signature
                  0x000174          0x6 WFMac.o
 __c30_signature
                  0x00017a          0x6 WFMac_24G.o
 __c30_signature
                  0x000180          0x6 WFMgmtMsg.o
 __c30_signature
                  0x000186          0x6 WFMgmtMsg_24G.o
 __c30_signature
                  0x00018c          0x6 WFParamMsg.o
 __c30_signature
                  0x000192          0x6 WFParamMsg_24G.o
 __c30_signature
                  0x000198          0x6 WFPowerSave.o
 __c30_signature
                  0x00019e          0x6 WFScan.o
 __c30_signature
                  0x0001a4          0x6 WFTxPower.o
 __c30_signature
                  0x0001aa          0x6 WF_Config.o
 __c30_signature
                  0x0001b0          0x6 WF_Eint.o
 __c30_signature
                  0x0001b6          0x6 WF_Events.o
 __c30_signature
                  0x0001bc          0x6 WF_Spi.o
 __c30_signature
                  0x0001c2          0x6 WF_Utils.o
 __c30_signature
                  0x0001c8          0x6 x_analog_in-pro.o
 __c30_signature
                  0x0001ce          0x6 x_digital_io-pro.o
 __c30_signature
                  0x0001d4          0x6 x_groveboard-pro.o
 __c30_signature
                  0x0001da          0x6 x_grovelib-pro.o
 __c30_signature
                  0x0001e0          0x6 x_i2c_devices-pro.o
 __c30_signature
                  0x0001e6          0x6 x_input_capture.o
 __c30_signature
                  0x0001ec          0x6 ZeroconfHelper.o
 __c30_signature
                  0x0001f2          0x6 ZeroconfLinkLocal.o
 __c30_signature
                  0x0001f8          0x6 ZeroconfMulticastDNS.o
 __c30_signature
                  0x0001fe          0x6 c:/program files (x86)/microchip/mplab c30/bin/bin/../../lib\libpic30-coff.a(crt0_extended.o)
 __c30_signature
                  0x000204          0x6 c:/program files (x86)/microchip/mplab c30/bin/bin/../../lib\libpic30-coff.a(c30_uart.o)
 __c30_signature
                  0x00020a          0x6 c:/program files (x86)/microchip/mplab c30/bin/bin/../../lib\libpic30-coff.a(flash_helper.o)
 __c30_signature
                  0x000210          0x6 c:/program files (x86)/microchip/mplab c30/bin/bin/../../lib\libpic30-coff.a(data_init_extended.o)
 __c30_signature
                  0x000216          0x6 c:/program files (x86)/microchip/mplab c30/bin/bin/../../lib\libc-coff.a(memset.o)
 __c30_signature
                  0x00021c          0x6 c:/program files (x86)/microchip/mplab c30/bin/bin/../../lib\libc-coff.a(strtok.o)
 __c30_signature
                  0x000222          0x6 c:/program files (x86)/microchip/mplab c30/bin/bin/../../lib\libc-coff.a(strcpy.o)
 __c30_signature
                  0x000228          0x6 c:/program files (x86)/microchip/mplab c30/bin/bin/../../lib\libc-coff.a(strlen.o)
 __c30_signature
                  0x00022e          0x6 c:/program files (x86)/microchip/mplab c30/bin/bin/../../lib\libc-coff.a(strcat.o)
 __c30_signature
                  0x000234          0x6 c:/program files (x86)/microchip/mplab c30/bin/bin/../../lib\libc-coff.a(xstoul.o)
 __c30_signature
                  0x00023a          0x6 c:/program files (x86)/microchip/mplab c30/bin/bin/../../lib\libc-coff.a(sprintf.io)
 __c30_signature
                  0x000240          0x6 c:/program files (x86)/microchip/mplab c30/bin/bin/../../lib\libc-coff.a(strcmp.o)
 __c30_signature
                  0x000246          0x6 c:/program files (x86)/microchip/mplab c30/bin/bin/../../lib\libc-coff.a(rand.o)
 __c30_signature
                  0x00024c          0x6 c:/program files (x86)/microchip/mplab c30/bin/bin/../../lib\libc-coff.a(srand.o)
 __c30_signature
                  0x000252          0x6 c:/program files (x86)/microchip/mplab c30/bin/bin/../../lib\libc-coff.a(memcmp.o)
 __c30_signature
                  0x000258          0x6 c:/program files (x86)/microchip/mplab c30/bin/bin/../../lib\libc-coff.a(memcpy.o)
 __c30_signature
                  0x00025e          0x6 c:/program files (x86)/microchip/mplab c30/bin/bin/../../lib\libc-coff.a(strchr.o)
 __c30_signature
                  0x000264          0x6 c:/program files (x86)/microchip/mplab c30/bin/bin/../../lib\libc-coff.a(strstr.o)
 __c30_signature
                  0x00026a          0x6 c:/program files (x86)/microchip/mplab c30/bin/bin/../../lib\libc-coff.a(localtim.o)
 __c30_signature
                  0x000270          0x6 c:/program files (x86)/microchip/mplab c30/bin/bin/../../lib\libc-coff.a(asctime.o)
 __c30_signature
                  0x000276          0x6 c:/program files (x86)/microchip/mplab c30/bin/bin/../../lib\libc-coff.a(strncpy.o)
 __c30_signature
                  0x00027c          0x6 c:/program files (x86)/microchip/mplab c30/bin/bin/../../lib\libc-coff.a(free.o)
 __c30_signature
                  0x000282          0x6 c:/program files (x86)/microchip/mplab c30/bin/bin/../../lib\libc-coff.a(malloc.o)
 __c30_signature
                  0x000288          0x6 c:/program files (x86)/microchip/mplab c30/bin/bin/../../lib\libc-coff.a(calloc.o)
 __c30_signature
                  0x00028e          0x6 c:/program files (x86)/microchip/mplab c30/bin/bin/../../lib\libc-coff.a(strspn.o)
 __c30_signature
                  0x000294          0x6 c:/program files (x86)/microchip/mplab c30/bin/bin/../../lib\libc-coff.a(strcspn.o)
 __c30_signature
                  0x00029a          0x6 c:/program files (x86)/microchip/mplab c30/bin/bin/../../lib\libc-coff.a(memchr.o)
 __c30_signature
                  0x0002a0          0x6 c:/program files (x86)/microchip/mplab c30/bin/bin/../../lib\libc-coff.a(errno.o)
 __c30_signature
                  0x0002a6          0x6 c:/program files (x86)/microchip/mplab c30/bin/bin/../../lib\libc-coff.a(xprintf.io)
 __c30_signature
                  0x0002ac          0x6 c:/program files (x86)/microchip/mplab c30/bin/bin/../../lib\libc-coff.a(xgetzone.o)
 __c30_signature
                  0x0002b2          0x6 c:/program files (x86)/microchip/mplab c30/bin/bin/../../lib\libc-coff.a(xgettime.o)
 __c30_signature
                  0x0002b8          0x6 c:/program files (x86)/microchip/mplab c30/bin/bin/../../lib\libc-coff.a(strtol.o)
 __c30_signature
                  0x0002be          0x6 c:/program files (x86)/microchip/mplab c30/bin/bin/../../lib\libc-coff.a(xttotm.o)
 __c30_signature
                  0x0002c4          0x6 c:/program files (x86)/microchip/mplab c30/bin/bin/../../lib\libc-coff.a(xstrftim.o)
 __c30_signature
                  0x0002ca          0x6 c:/program files (x86)/microchip/mplab c30/bin/bin/../../lib\libc-coff.a(xgetmem.o)
 __c30_signature
                  0x0002d0          0x6 c:/program files (x86)/microchip/mplab c30/bin/bin/../../lib\libc-coff.a(xvacopy.o)
 __c30_signature
                  0x0002d6          0x6 c:/program files (x86)/microchip/mplab c30/bin/bin/../../lib\libc-coff.a(xputfld.io)
 __c30_signature
                  0x0002dc          0x6 c:/program files (x86)/microchip/mplab c30/bin/bin/../../lib\libc-coff.a(xputtxt.o)
 __c30_signature
                  0x0002e2          0x6 c:/program files (x86)/microchip/mplab c30/bin/bin/../../lib\libc-coff.a(xisdst.o)
 __c30_signature
                  0x0002e8          0x6 c:/program files (x86)/microchip/mplab c30/bin/bin/../../lib\libc-coff.a(xgentime.o)
 __c30_signature
                  0x0002ee          0x6 c:/program files (x86)/microchip/mplab c30/bin/bin/../../lib\libc-coff.a(xlitob.o)
 __c30_signature
                  0x0002f4          0x6 c:/program files (x86)/microchip/mplab c30/bin/bin/../../lib\libc-coff.a(xatexit.o)
 __c30_signature
                  0x0002fa          0x6 c:/program files (x86)/microchip/mplab c30/bin/bin/../../lib\libc-coff.a(xgetdst.o)
 __c30_signature
                  0x000300          0x6 c:/program files (x86)/microchip/mplab c30/bin/bin/../../lib\libm-coff.a(udivsi3.o)
 __c30_signature
                  0x000306          0x6 c:/program files (x86)/microchip/mplab c30/bin/bin/../../lib\libm-coff.a(divsf3.o)
 __c30_signature
                  0x00030c          0x6 c:/program files (x86)/microchip/mplab c30/bin/bin/../../lib\libm-coff.a(fgtge.o)
 __c30_signature
                  0x000312          0x6 c:/program files (x86)/microchip/mplab c30/bin/bin/../../lib\libm-coff.a(fixunssfsi.o)
 __c30_signature
                  0x000318          0x6 c:/program files (x86)/microchip/mplab c30/bin/bin/../../lib\libm-coff.a(floatsisf.o)
 __c30_signature
                  0x00031e          0x6 c:/program files (x86)/microchip/mplab c30/bin/bin/../../lib\libm-coff.a(addsf3.o)
 __c30_signature
                  0x000324          0x6 c:/program files (x86)/microchip/mplab c30/bin/bin/../../lib\libm-coff.a(mulsf3.o)
 __c30_signature
                  0x00032a          0x6 c:/program files (x86)/microchip/mplab c30/bin/bin/../../lib\libm-coff.a(divmoddi3.o)
 __c30_signature
                  0x000330          0x6 c:/program files (x86)/microchip/mplab c30/bin/bin/../../lib\libm-coff.a(muldi3.o)
 __c30_signature
                  0x000336          0x6 c:/program files (x86)/microchip/mplab c30/bin/bin/../../lib\libm-coff.a(mulsi3.o)
 __c30_signature
                  0x00033c          0x6 c:/program files (x86)/microchip/mplab c30/bin/bin/../../lib\libm-coff.a(divsi3.o)
 __c30_signature
                  0x000342          0x6 c:/program files (x86)/microchip/mplab c30/bin/bin/../../lib\libm-coff.a(modsi3.o)
 __c30_signature
                  0x000348          0x6 c:/program files (x86)/microchip/mplab c30/bin/bin/../../lib\libm-coff.a(umodsi3.o)
 __c30_signature
                  0x00034e          0x6 c:/program files (x86)/microchip/mplab c30/bin/bin/../../lib\libm-coff.a(funpack2.o)
 __c30_signature
                  0x000354          0x6 c:/program files (x86)/microchip/mplab c30/bin/bin/../../lib\libm-coff.a(futil.o)
 __c30_signature
                  0x00035a          0x6 c:/program files (x86)/microchip/mplab c30/bin/bin/../../lib\libm-coff.a(fpack.o)
 __c30_signature
                  0x000360          0x6 c:/program files (x86)/microchip/mplab c30/bin/bin/../../lib\libm-coff.a(fcompare.o)
 __c30_signature
                  0x000366          0x6 c:/program files (x86)/microchip/mplab c30/bin/bin/../../lib\libm-coff.a(funpack.o)
 __c30_signature
                  0x00036c          0x6 c:/program files (x86)/microchip/mplab c30/bin/bin/../../lib\libm-coff.a(umuldi3.o)
 __c30_signature
                  0x000372          0x6 c:/program files (x86)/microchip/mplab c30/bin/bin/../../lib\libpic30-coff.a(getenv.o)
 __c30_signature
                  0x000378          0x6 c:/program files (x86)/microchip/mplab c30/bin/bin/../../lib\libpic30-coff.a(sbrk.o)
 __c30_signature
                  0x00037e          0x6 c:/program files (x86)/microchip/mplab c30/bin/bin/../../lib\libpic30-coff.a(brk.o)

BigInt_helper_vars
                    0x0800          0xc
 BigInt_helper_vars
                    0x0800          0xc BigInt_helper.o
                    0x0800                  _iA
                    0x0802                  _xA
                    0x0804                  _iB
                    0x0806                  _xB
                    0x0808                  _iR
                    0x080a                  _wC

.bss                0x080c       0x1ba2
 .bss               0x080c       0x177a heap_2.o
 .bss               0x1f86        0x428 Main.o
                    0x1fe4                  AppConfig
                    0x208e                  xIPAddress
                    0x20f2                  xWord
                    0x20f4                  xChar
                    0x20f6                  xByte
                    0x20f8                  xByte2
                    0x20f9                  xByte3
                    0x20fa                  xInt
                    0x20fc                  xInt2
                    0x20fe                  xNode
                    0x2108                  xQueue
                    0x210a                  BUFFER_UDP_LEN
                    0x210c                  udpBuffer
                    0x210e                  udpRxLenGlobal
                    0x2110                  udpSocket
                    0x2112                  xUDPPort
                    0x2114                  p_udp_data
                    0x2116                  p_udp_wifiram
                    0x2118                  xUDPRemoteHost
                    0x211c                  udpWord
                    0x211e                  udpInt
                    0x2120                  udpByte
                    0x2122                  UDPoverflowFlag
                    0x2124                  NETConf
                    0x2278                  WFStatusold
                    0x227a                  xNet
                    0x22a8                  udpRxLen
                    0x22aa                  udpBuffer1
                    0x23a4                  tmp_len
                    0x23a6                  hTCPIPTask
                    0x23a8                  hFlyTask
                    0x23aa                  hTimerTask
                    0x23ac                  xStatus

.data               0x23ae        0x3ec
 .data              0x23ae        0x3ec Regs.o
                    0x23ae                  LATs
                    0x23fe                  TRISs
                    0x244e                  PORTs
                    0x249e                  CNPUs
                    0x24ee                  CNPDs
                    0x253e                  CNPos
                    0x258e                  IOPos
                    0x25de                  an
                    0x25f2                  UMODEs
                    0x25fa                  USTAs
                    0x2602                  UBRGs
                    0x260a                  UIFSs
                    0x2612                  UIECs
                    0x261a                  UTXREGs
                    0x2622                  URXREGs
                    0x262a                  UTXIPos
                    0x2632                  URXIPos
                    0x263a                  AD1CONF1
                    0x263c                  AD1CONF2
                    0x263e                  AD1CONF3
                    0x2640                  AD1CH
                    0x2642                  AD1CSL
                    0x2644                  OCCON1s
                    0x2656                  OCCON2s
                    0x2668                  OCRs
                    0x267a                  OCRSs
                    0x268c                  RPORs
                    0x26dc                  RPFunc
                    0x26f2                  RPIORPin
                    0x2742                  TCONs
                    0x274c                  OCM
                    0x275e                  RPIRs
                    0x277c                  RPIRPos

.bss                0x279a        0xe4a
 .bss               0x279a        0x3ac HWlib.o
                    0x2b3c                  TimerOn
 .bss               0x2b46        0x338 RSA.o
                    0x2b62                  E
                    0x2b6a                  N
                    0x2b72                  Y
                    0x2b7a                  rsaData
                    0x2c7a                  eData
                    0x2c7e                  rsaTemp
 .bss               0x2e7e        0x324 SSL.o
                    0x2ee0                  sslBuffer
                    0x30e0                  sslHash
                    0x313a                  sslSession
                    0x318a                  sslSessionStubs
                    0x319a                  ptrHS
                    0x319c                  isStubUsed
                    0x319e                  isHashUsed
                    0x31a0                  isBufferUsed
 .bss               0x31a2        0x2c6 taskFlyport.o
                    0x31a2                  MY_EMAIL
                    0x31d4                  MY_EMAIL_USER
                    0x3206                  MY_EMAIL_PASS
                    0x3224                  MY_SMTP
                    0x3256                  MY_SMTP_PORT
                    0x3260                  EMAIL_DEST
                    0x3292                  EMAIL_SUBJECT
                    0x32f6                  EMAIL_BODY
                    0x33be                  GMT
                    0x33c8                  start_string
                    0x33d2                  stop_string
                    0x33dc                  dbg_string
                    0x3440                  report
                    0x3442                  start_alarm_time
                    0x3454                  stop_alarm_time
                    0x3466                  timer
 .bss               0x3468        0x17c HTTPApp.o
                    0x34ea                  String_post

.data               0x35e4        0x2d6
 .data              0x35e4        0x16c c:/program files (x86)/microchip/mplab c30/bin/bin/../../lib\libc-coff.a(asctime.o)
                    0x35e4                  _Tls_setup__Times
                    0x35e6                  _Times
 .data              0x3750        0x16a WFDebugStrings.o
                    0x3750                  connectionFailureStrings
                    0x3778                  channelList_softAP_redirect
                    0x3778                  connectionLostStrings
                    0x3784                  deauthDisssocReasonCodes
                    0x37b6                  statusCodes
                    0x3816                  wpsState
                    0x3834                  wpsConfigErr
                    0x388a                  moduleName

.bss                0x38ba        0x4a6
 .bss               0x38ba        0x126 TCP.o
 .bss               0x39e0         0xcc UDP.o
                    0x39e6                  UDPSocketInfo
                    0x3aa6                  activeUDPSocket
                    0x3aa8                  UDPTxCount
                    0x3aaa                  UDPRxCount
 .bss               0x3aac         0x8c HTTP2.o
                    0x3aac                  curHTTP
                    0x3b2e                  httpStubs
                    0x3b36                  curHTTPID
 .bss               0x3b38         0x88 c:/program files (x86)/microchip/mplab c30/bin/bin/../../lib\libc-coff.a(rand.o)
 .bss               0x3bc0         0x74 tasks.o
 .bss               0x3c34         0x70 Random.o
 .bss               0x3ca4         0x6c MPFS2.o
 .bss               0x3d10         0x50 Regs.o
                    0x3d10                  IOMode

.data               0x3d60         0x4a
 .data              0x3d60         0x4a c:/program files (x86)/microchip/mplab c30/bin/bin/../../lib\libc-coff.a(xstoul.o)

.bss                0x3daa         0x7c
 .bss               0x3daa         0x40 Hashes.o
                    0x3daa                  lastBlock
 .bss               0x3dea         0x3c SMTP.o
                    0x3e0c                  SMTPClient

.data               0x3e26         0x30
 .data              0x3e26         0x30 c:/program files (x86)/microchip/mplab c30/bin/bin/../../lib\libc-coff.a(xttotm.o)

.dconst             0x3e56         0x2a
 .dconst            0x3e56         0x2a c:/program files (x86)/microchip/mplab c30/bin/bin/../../lib\libc-coff.a(xgentime.o)

.bss                0x3e80         0x28
 .bss               0x3e80         0x28 DHCP.o

.data               0x3ea8         0x6e
 .data              0x3ea8         0x28 Main.o
                    0x3ea8                  ConnectionProfileID
                    0x3eaa                  _WFStat
                    0x3eac                  WFConnection
                    0x3eae                  xTCPPort
                    0x3eb0                  xSocket
                    0x3eb2                  xFrontEndStat
                    0x3eb4                  xFrontEndStatRet
                    0x3eb6                  xErr
                    0x3eb8                  xBool
                    0x3eba                  WPAWrong
                    0x3ebc                  numUdpSocket
                    0x3ebe                  xUDPLocalPort
                    0x3ec0                  xUDPRemotePort
                    0x3ec2                  activeUdpSocket
                    0x3ec3                  callbackUdpSocket
                    0x3ec4                  udpErr
                    0x3ec6                  udpBool
                    0x3ec8                  datadiscard
                    0x3eca                  UDPoverflow
                    0x3ecc                  xSemFrontEnd
                    0x3ece                  xSemHW
 .data              0x3ed0         0x24 x_input_capture.o
                    0x3ed0                  RPICRs
                    0x3edc                  ICCON1Rs
                    0x3ee8                  ICCON2Rs
 .data              0x3ef4         0x22 c:/program files (x86)/microchip/mplab c30/bin/bin/../../lib\libc-coff.a(xlitob.o)

.bss                0x3f16         0xa2
 .bss               0x3f16         0x1c c:/program files (x86)/microchip/mplab c30/bin/bin/../../lib\libc-coff.a(asctime.o)
 .bss               0x3f32         0x1a WFMac_24G.o
                    0x3f48                  g_rxBufferLength
                    0x3f4a                  WF_hibernate
 .bss               0x3f4c         0x18 DNS.o
 .bss               0x3f64         0x16 ARP.o
 .bss               0x3f7a         0x16 WFDriverCom_24G.o
                    0x3f8c                  RawMoveState
 .bss               0x3f90         0x14 DHCPs.o
                    0x3f94                  DhcpIpPool
 .bss               0x3fa4         0x14 c:/program files (x86)/microchip/mplab c30/bin/bin/../../lib\libc-coff.a(xttotm.o)

.data               0x3fb8         0x36
 .data              0x3fb8         0x12 x_groveboard-pro.o
                    0x3fb8                  g_d1
                    0x3fba                  g_d2
                    0x3fbc                  g_SCK
                    0x3fbd                  g_MISO
                    0x3fbe                  g_MOSI
                    0x3fbf                  g_SPI_CS
                    0x3fc0                  g_SD_CD
                    0x3fc1                  g_I2CSCL
                    0x3fc2                  g_I2CSDA
                    0x3fc3                  g_an
                    0x3fc6                  GroveStarted
                    0x3fc8                  Board
 .data              0x3fca         0x12 c:/program files (x86)/microchip/mplab c30/bin/bin/../../lib\libc-coff.a(xprintf.io)
 .data              0x3fdc         0x12 c:/program files (x86)/microchip/mplab c30/bin/bin/../../lib\libc-coff.a(xgetzone.o)

.bss                0x3fee         0x1e
 .bss               0x3fee         0x10 StackTsk.o
                    0x3ff4                  remoteNode
 .bss               0x3ffe          0xe SNTP.o

.dconst             0x400c          0xe
 .dconst            0x400c          0xe c:/program files (x86)/microchip/mplab c30/bin/bin/../../lib\libc-coff.a(xgetzone.o)

.bss                0x401a         0x18
 .bss               0x401a          0xc FTPlib.o
 .bss               0x4026          0xc UDPlib.o

.data               0x4032          0xa
 .data              0x4032          0xa HWlib.o

.bss                0x403c          0xa
 .bss               0x403c          0xa Tick.o

.data               0x4046          0xa
 .data              0x4046          0xa c:/program files (x86)/microchip/mplab c30/bin/bin/../../lib\libc-coff.a(rand.o)
                    0x4046                  _Tls_setup__Randseed
                    0x4048                  _Randseed
                    0x404c                  _Tls_setup__Randinit
                    0x404e                  _Randinit

.bss                0x4050          0xa
 .bss               0x4050          0xa c:/program files (x86)/microchip/mplab c30/bin/bin/../../lib\libc-coff.a(localtim.o)

.data               0x405a         0x10
 .data              0x405a          0x8 StackTsk.o
                    0x405a                  DHCPAssigned
                    0x405c                  g_DhcpRenew
                    0x405e                  g_DhcpRetryTimer
 .data              0x4062          0x8 WFDriverCom_24G.o
                    0x4062                  g_DhcpSuccessful
                    0x4064                  g_WiFiConnectionChanged
                    0x4066                  g_WiFiConnection
                    0x4068                  g_dhcpInProgress

.bss                0x406a          0x8
 .bss               0x406a          0x8 WFPowerSave.o
                    0x4070                  g_rxDtim

.dconst             0x4072          0x8
 .dconst            0x4072          0x8 c:/program files (x86)/microchip/mplab c30/bin/bin/../../lib\libc-coff.a(xprintf.io)

.bss                0x407a          0x8
 .bss               0x407a          0x8 c:/program files (x86)/microchip/mplab c30/bin/bin/../../lib\libc-coff.a(xisdst.o)

.data               0x4082          0x6
 .data              0x4082          0x6 DHCPs.o
                    0x4084                  bDHCPServerEnabled

.bss                0x4088         0x18
 .bss               0x4088          0x6 INTlib.o
                    0x4088                  isr_int2
                    0x408a                  isr_int3
                    0x408c                  isr_int4
 .bss               0x408e          0x6 RTCClib.o
                    0x4092                  arpt
 .bss               0x4094          0x6 SPIFlash.o
 .bss               0x409a          0x6 x_input_capture.o
                    0x409a                  icflag
                    0x409c                  icvalue

.data               0x40a0          0x6
 .data              0x40a0          0x6 c:/program files (x86)/microchip/mplab c30/bin/bin/../../lib\libc-coff.a(malloc.o)
                    0x40a0                  _Size_block
                    0x40a2                  _Aldata

.bss                0x40a6          0x4
 .bss               0x40a6          0x4 Announce.o

.data               0x40aa          0x8
 .data              0x40aa          0x4 DNS.o
 .data              0x40ae          0x4 Helpers.o

.bss                0x40b2          0x8
 .bss               0x40b2          0x4 IP.o
 .bss               0x40b6          0x4 NBNS.o

.data               0x40ba          0xc
 .data              0x40ba          0x4 tasks.o
                    0x40ba                  pxCurrentTCB
 .data              0x40be          0x4 WFDriverRaw_24G.o
                    0x40be                  g_HostRAWDataPacketReceived
                    0x40c0                  g_RawIndexPastEnd
 .data              0x40c2          0x4 WFMac_24G.o
                    0x40c2                  WFArpBroadcastIntervalSec

.bss                0x40c6          0x4
 .bss               0x40c6          0x4 WFMgmtMsg_24G.o

.dconst             0x40ca          0x4
 .dconst            0x40ca          0x4 c:/program files (x86)/microchip/mplab c30/bin/bin/../../lib\libc-coff.a(asctime.o)

.data               0x40ce          0x4
 .data              0x40ce          0x4 c:/program files (x86)/microchip/mplab c30/bin/bin/../../lib\libc-coff.a(errno.o)
                    0x40ce                  _Tls_setup_errno
                    0x40d0                  errno

.bss                0x40d2          0x6
 .bss               0x40d2          0x4 c:/program files (x86)/microchip/mplab c30/bin/bin/../../lib\libc-coff.a(xgetzone.o)
 .bss               0x40d6          0x2 ARPlib.o

.data               0x40d8          0x2
 .data              0x40d8          0x2 DHCP.o
                    0x40d8                  DHCPClientInitializedOnce

.pbss               0x40da          0x2
 .pbss              0x40da          0x2 DNS.o

.data               0x40dc          0x4
 .data              0x40dc          0x2 FTPlib.o
 .data              0x40de          0x2 heap_2.o

.bss                0x40e0          0x2
 .bss               0x40e0          0x2 NETlib.o

.data               0x40e2          0x6
 .data              0x40e2          0x2 port.o
                    0x40e2                  uxCriticalNesting
 .data              0x40e4          0x2 RTCClib.o
                    0x40e4                  alarmflag
 .data              0x40e6          0x2 SMTP.o

.bss                0x40e8          0x2
 .bss               0x40e8          0x2 SMTPlib.o

.data               0x40ea          0x6
 .data              0x40ea          0x2 SNTP.o
 .data              0x40ec          0x2 taskFlyport.o
                    0x40ec                  ParamSet
 .data              0x40ee          0x2 TCP.o

.pbss               0x40f0          0x2
 .pbss              0x40f0          0x2 TCP.o

.bss                0x40f2          0x2
 .bss               0x40f2          0x2 TCPlib.o

.data               0x40f4          0x2
 .data              0x40f4          0x2 UDP.o

.pbss               0x40f6          0x2
 .pbss              0x40f6          0x2 UDP.o

.data               0x40f8          0x2
 .data              0x40f8          0x2 WFConnectionAlgorithm.o

.bss                0x40fa          0x4
 .bss               0x40fa          0x2 WFConnectionManager.o
 .bss               0x40fc          0x2 WFDriverRaw_24G.o
                    0x40fc                  RawWindowState

.data               0x40fe          0x6
 .data              0x40fe          0x2 WFMgmtMsg_24G.o
                    0x40fe                  g_WaitingForMgmtResponse
 .data              0x4100          0x2 WFPowerSave.o
 .data              0x4102          0x2 WF_Config.o
                    0x4102                  WFNetworkFound

.bss                0x4104          0x2
 .bss               0x4104          0x2 WF_Config.o
                    0x4104                  myRSSI

.data               0x4106          0x2
 .data              0x4106          0x2 WF_Events.o
                    0x4106                  ScanCompleted

.bss                0x4108          0x2
 .bss               0x4108          0x2 WF_Spi.o

.data               0x410a          0x4
 .data              0x410a          0x2 x_analog_in-pro.o
                    0x410a                  An_i
 .data              0x410c          0x2 x_digital_io-pro.o
                    0x410c                  Dig_io

.bss                0x410e          0x2
 .bss               0x410e          0x2 x_grovelib-pro.o
                    0x410e                  flag

.data               0x4110          0x4
 .data              0x4110          0x2 c:/program files (x86)/microchip/mplab c30/bin/bin/../../lib\libpic30-coff.a(c30_uart.o)
                    0x4110                  __C30_UART
 .data              0x4112          0x2 c:/program files (x86)/microchip/mplab c30/bin/bin/../../lib\libc-coff.a(strtok.o)

.bss                0x4114          0x2
 .bss               0x4114          0x2 c:/program files (x86)/microchip/mplab c30/bin/bin/../../lib\libc-coff.a(strtok.o)

.dconst             0x4116          0x2
 .dconst            0x4116          0x2 c:/program files (x86)/microchip/mplab c30/bin/bin/../../lib\libc-coff.a(strtok.o)

.data               0x4118          0x2
 .data              0x4118          0x2 c:/program files (x86)/microchip/mplab c30/bin/bin/../../lib\libc-coff.a(xisdst.o)

.bss                0x411a          0x2
 .bss               0x411a          0x2 c:/program files (x86)/microchip/mplab c30/bin/bin/../../lib\libpic30-coff.a(brk.o)
                    0x411a                  __curbrk

my_heap             0x411c        0x500
 my_heap            0x411c        0x500 x_heap.o

.const              0xa4de       0x1db2 load address 0x0024de  
 .const             0xa4de        0xeae WFDebugStrings.o
 .const             0xb38c        0x4b6 HTTP2.o
 .const             0xb842        0x1d4 FTPlib.o
 .const             0xba16        0x140 Hashes.o
 .const             0xbb56        0x120 taskFlyport.o
 .const             0xbc76         0xe2 HTTPApp.o
 .const             0xbd58         0xd8 WFMgmtMsg_24G.o
 .const             0xbe30         0xca ISRs.o
 .const             0xbefa         0x86 SMTP.o
 .const             0xbf80         0x6c WF_Events.o
 .const             0xbfec         0x68 Main.o
 .const             0xc054         0x4c SSL.o
 .const             0xc0a0         0x48 TCP.o
                    0xc0a0                  TCPSocketInitializer
 .const             0xc0e8         0x46 NETlib.o
 .const             0xc12e         0x46 WFDriverRaw_24G.o
                    0xc16a                  g_RawAccessOutOfBoundsMask
 .const             0xc174         0x28 TCPIP_Utils.o
 .const             0xc19c         0x20 port.o
 .const             0xc1bc         0x1e WF_Utils.o
 .const             0xc1da         0x1c Announce.o
 .const             0xc1f6         0x1a DHCP.o
 .const             0xc210         0x16 x_input_capture.o
                    0xc210                  ICPos
 .const             0xc226          0xe Helpers.o
 .const             0xc234          0xe SNTP.o
 .const             0xc242          0xe x_analog_in-pro.o
 .const             0xc250          0xe x_digital_io-pro.o
 .const             0xc25e          0xc TCPlib.o
 .const             0xc26a          0xc x_groveboard-pro.o
 .const             0xc276          0x8 MPFS2.o
 .const             0xc27e          0x6 tasks.o
 .const             0xc284          0x6 WFInit.o
 .const             0xc28a          0x4 MPFSImg2.o
                    0xc28a                  MPFS_Start
 .const             0xc28e          0x2 heap_2.o

MPFSData          0x004290       0x98ee
 MPFSData         0x004290       0x98ee MPFSImg2.o
                  0x004294                  BEGIN_MPFS

.text             0x00db7e      0x1084c
 .text            0x00db7e       0x2d46 TCP.o
                  0x00dc36                  TCPInit
                  0x00dd12                  TCPOpen
                  0x00de66                  TCPWasReset
                  0x00de9a                  TCPIsConnected
                  0x00dec2                  TCPDisconnect
                  0x00df86                  TCPClose
                  0x00dfa2                  TCPGetRemoteInfo
                  0x00dfce                  TCPFlush
                  0x00dff0                  TCPIsPutReady
                  0x00e084                  TCPPut
                  0x00e150                  TCPPutArray
                  0x00e288                  TCPPutString
                  0x00e2a6                  TCPGetTxFIFOFull
                  0x00e2d4                  TCPDiscard
                  0x00e2f2                  TCPIsGetReady
                  0x00e330                  TCPGet
                  0x00e3a2                  TCPGetArray
                  0x00e466                  TCPGetRxFIFOFree
                  0x00e4aa                  TCPPeekArray
                  0x00e554                  TCPPeek
                  0x00e56c                  TCPFindArrayEx
                  0x00e7f6                  TCPFindEx
                  0x00e814                  TCPTick
                  0x00ece8                  TCPProcess
                  0x00ff06                  TCPAdjustFIFOSize
                  0x010184                  TCPStartSSLClient
                  0x010204                  TCPStartSSLClientEx
                  0x010288                  TCPRequestSSLMessage
                  0x0102c2                  TCPSSLIsHandshaking
                  0x0102e6                  TCPIsSSL
                  0x010312                  TCPSSLHandshakeComplete
                  0x01032a                  TCPSSLDecryptMAC
                  0x010438                  TCPSSLInPlaceMACEncrypt
                  0x010546                  TCPSSLPutRecordHeader
                  0x0105c6                  TCPSSLGetPendingTxSize
                  0x010606                  TCPSSLHandleIncoming
 .text            0x0108c4       0x240a HWlib.o
                  0x0108c4                  _dbgwrite
                  0x0108d2                  ADCInit
                  0x010902                  ADCRefEnable
                  0x010920                  _ADC1Interrupt
                  0x010934                  ADCVal
                  0x010958                  ADCAttach
                  0x010984                  ADCDetach
                  0x0109b8                  IOPut
                  0x010ad4                  IOInit
                  0x010fea                  IOGet
                  0x011068                  IOButtonState
                  0x011126                  UARTInit
                  0x01127c                  UARTOn
                  0x011352                  UARTOff
                  0x0113e0                  UARTRxInt
                  0x0114de                  UARTFlush
                  0x01150a                  UARTBufferSize
                  0x01159e                  UARTRead
                  0x011660                  UARTWrite
                  0x0116f8                  UARTWriteCh
                  0x01176e                  PWMInit
                  0x0119e6                  PWMOn
                  0x011b2a                  PWMDuty
                  0x011ba0                  PWMOff
                  0x011bb8                  I2CInit
                  0x011bd4                  I2CStart
                  0x011c16                  I2CRestart
                  0x011c58                  I2CStop
                  0x011c9a                  I2CGetDevAck
                  0x011cd8                  I2CTimeout
                  0x011ce8                  I2CAddrSizeSet
                  0x011d0e                  I2CAddrSizeGet
                  0x011d1a                  I2CWrite
                  0x011d9c                  I2CRead
                  0x011e42                  I2CReadReg
                  0x011ea6                  I2CReadMulti
                  0x011f60                  I2CWriteReg
                  0x011fa6                  I2CWriteMulti
                  0x012008                  I2C2Init
                  0x012020                  I2C2Start
                  0x012062                  I2C2Restart
                  0x0120a4                  I2C2Stop
                  0x0120e6                  I2C2GetDevAck
                  0x012124                  I2C2Timeout
                  0x012134                  I2C2AddrSizeSet
                  0x01215a                  I2C2AddrSizeGet
                  0x012166                  I2C2Write
                  0x0121e8                  I2C2Read
                  0x01228e                  I2C2ReadReg
                  0x0122f2                  I2C2ReadMulti
                  0x0123ac                  I2C2WriteReg
                  0x0123f2                  I2C2WriteMulti
                  0x012454                  EEInit
                  0x012496                  EERWDelay
                  0x0124a2                  EESetPageSize
                  0x0124ae                  EEGetPageSize
                  0x012988                  EESaveData
                  0x012ab6                  EELoadData
                  0x012b8e                  EEEraseData
                  0x012c8a                  EESaveString
                  0x012ca2                  EELoadString
                  0x012cba                  EEEraseString
 .text            0x012cce       0x184a SSL.o
                  0x012cce                  SSLInit
                  0x012d32                  SSLPeriodic
                  0x012d80                  SSLStartSession
                  0x012e74                  SSLTerminate
                  0x012eaa                  SSLRxRecord
                  0x013034                  SSLTxRecord
                  0x0130cc                  SSLTxMessage
                  0x013168                  SSLRxHandshake
                  0x01442e                  SSLMACBegin
                  0x0144b8                  SSLMACAdd
                  0x0144cc                  SSLMACCalc
 .text            0x014518       0x1374 HTTP2.o
                  0x014518                  HTTPPrint
                  0x01453a                  HTTPPrint_
                  0x014556                  HTTPInit
                  0x0145de                  HTTPServer
                  0x015494                  HTTPURLDecode
                  0x015562                  HTTPGetArg
                  0x0155aa                  HTTPReadPostName
                  0x0155d2                  HTTPReadPostValue
                  0x0157c0                  HTTPIncFile
 .text            0x01588c       0x102c SMTP.o
                  0x01588c                  SMTPBeginUsage
                  0x0158f2                  SMTPEndUsage
                  0x01594c                  SMTPTask
                  0x0165d8                  SMTPSendMail
                  0x0165e8                  SMTPIsBusy
                  0x0165fe                  SMTPIsPutReady
                  0x01661c                  SMTPPut
                  0x0166c0                  SMTPPutArray
                  0x0166fc                  SMTPPutString
                  0x016732                  SMTPFlush
                  0x016740                  SMTPPutDone
 .text            0x0168b8        0xeb0 FTPlib.o
                  0x0168b8                  FTPClientOpen
                  0x0168d0                  FTPRead
                  0x0168e6                  FTPWrite
                  0x0168fc                  FTPClose
                  0x01690e                  FTPisConn
                  0x01691c                  FTPRxLen
                  0x01692a                  FTPClientPasv
                  0x016aee                  FTPSendCmd
                  0x016b94                  FTPConnect
                  0x016e00                  FTPFileCheck
                  0x016e96                  FTPFileSize
                  0x016f40                  FTPStore
                  0x016f56                  FTPAppend
                  0x01713e                  FTPStreamOpen
                  0x0172c4                  FTPStreamWrite
                  0x017396                  FTPStreamRead
                  0x01750c                  FTPStreamClose
                  0x01752c                  FTPStreamStat
                  0x017536                  FTPAnswer
                  0x017592                  FTPRxFlush
                  0x01764e                  FTPRxRead
 .text            0x017768        0xc54 Hashes.o
                  0x017768                  HashAddData
                  0x017794                  MD5Initialize
                  0x0177d0                  MD5AddData
                  0x017ad2                  MD5Calculate
                  0x017c56                  SHA1Initialize
                  0x017c9c                  SHA1AddData
                  0x018122                  SHA1Calculate
 .text            0x0183bc        0xc12 NETlib.o
                  0x0183bc                  WFGetPSK
                  0x018462                  cWFGetPSK
                  0x0184b6                  NETCustomSave
                  0x018594                  NETCustomDelete
                  0x0185e2                  NETCustomExist
                  0x018610                  NETCustomLoad
                  0x0186a8                  NETSetParam
                  0x018856                  WFGeneric
                  0x0188ec                  WFConnect
                  0x01898a                  WFDisconnect
                  0x0189aa                  WFScan
                  0x0189c6                  RSSIUpdate
                  0x0189f0                  cRSSIUpdate
                  0x018a4e                  RSSIValue
                  0x018a5a                  RSSIStatus
                  0x018a7c                  WFScanList
                  0x018b50                  WFStopConnecting
                  0x018be8                  WFSetChannel
                  0x018c50                  WFSetSecurity
                  0x018c9c                  WFHibernate
                  0x018cc8                  WFSleep
                  0x018d00                  WFOn
                  0x018d32                  WFPsPollEnable
                  0x018de8                  cWFDisconnect
                  0x018e08                  cWFScan
                  0x018e94                  cWFScanList
                  0x018f60                  WFGetStat
                  0x018f68                  cWFStopConnecting
                  0x018fa0                  cWFConnect
                  0x018fb4                  cWFPsPollDisable
                  0x018fc0                  cWFPsPollEnable
 .text            0x018fce        0xb6a taskFlyport.o
                  0x018fce                  start_alarm
                  0x018fea                  stop_alarm
                  0x01900a                  FlyportTask
 .text            0x019b38        0xb5a MPFS2.o
                  0x019b38                  MPFSInit
                  0x019b62                  MPFSOpen
                  0x019cb0                  MPFSOpenID
                  0x019d34                  MPFSClose
                  0x019d56                  MPFSGet
                  0x019efc                  MPFSGetArray
                  0x01a160                  MPFSGetLong
                  0x01a180                  MPFSSeek
                  0x01a39a                  MPFSGetTimestamp
                  0x01a3e8                  MPFSGetMicrotime
                  0x01a436                  MPFSGetFlags
                  0x01a47a                  MPFSGetSize
                  0x01a4c8                  MPFSGetBytesRem
                  0x01a510                  MPFSGetStartAddr
                  0x01a560                  MPFSGetEndAddr
                  0x01a5ba                  MPFSGetFilename
                  0x01a622                  MPFSGetPosition
                  0x01a642                  MPFSGetID
 .text            0x01a692        0xada DHCPs.o
                  0x01a692                  DHCPServerInit
                  0x01a6b4                  DHCPServerSMInit
                  0x01a6be                  DHCPServerTask
                  0x01b134                  DHCPServer_Disable
                  0x01b15e                  DHCPServer_Enable
 .text            0x01b16c        0xa94 DHCP.o
                  0x01b16c                  DHCPInit
                  0x01b1bc                  DHCPDisable
                  0x01b1de                  DHCPEnable
                  0x01b1f6                  DHCPIsEnabled
                  0x01b20e                  DHCPIsBound
                  0x01b21c                  DHCPStateChanged
                  0x01b23e                  DHCPIsServerDetected
                  0x01b24e                  DHCPTempIPAddr
                  0x01b294                  DHCPTask
 .text            0x01bc00        0xa8e Helpers.o
                  0x01bc00                  LFSRSeedRand
                  0x01bc40                  LFSRRand
                  0x01bcae                  GenerateRandomDWORD
                  0x01bdec                  StringToIPAddress
                  0x01bf74                  IPAddressToString
                  0x01bfb6                  Base64Decode
                  0x01c0f4                  Base64Encode
                  0x01c250                  uitoa
                  0x01c2ce                  ultoa
                  0x01c37e                  hexatob
                  0x01c3f4                  btohexa_high
                  0x01c41c                  btohexa_low
                  0x01c442                  stricmppgm2ram
                  0x01c4da                  swaps
                  0x01c4f4                  swapl
                  0x01c552                  CalcIPChecksum
                  0x01c5c6                  strupr
                  0x01c600                  FormatNetBIOSName
                  0x01c648                  strnchr
 .text            0x01c68e        0xa70 tasks.o
                  0x01c68e                  xTaskGenericCreate
                  0x01c78a                  vTaskDelete
                  0x01c7f6                  vTaskDelayUntil
                  0x01c86e                  vTaskDelay
                  0x01c8aa                  vTaskPrioritySet
                  0x01c988                  vTaskSuspend
                  0x01c9fa                  xTaskIsTaskSuspended
                  0x01ca2c                  vTaskResume
                  0x01ca8e                  xTaskResumeFromISR
                  0x01cb00                  vTaskStartScheduler
                  0x01cb34                  vTaskEndScheduler
                  0x01cb4a                  vTaskSuspendAll
                  0x01cb56                  xTaskResumeAll
                  0x01cc08                  xTaskGetTickCount
                  0x01cc1c                  xTaskGetTickCountFromISR
                  0x01cc2c                  uxTaskGetNumberOfTasks
                  0x01cc34                  vTaskIncrementTick
                  0x01ccf0                  vTaskSwitchContext
                  0x01cd4a                  vTaskPlaceOnEventList
                  0x01cd82                  xTaskRemoveFromEventList
                  0x01cdf2                  vTaskSetTimeOutState
                  0x01ce06                  xTaskCheckForTimeOut
                  0x01ce72                  vTaskMissedYield
                  0x01ce7c                  tasks.o:_prvIdleTask
                  0x01d020                  xTaskGetCurrentTaskHandle
                  0x01d02c                  vTaskPriorityInherit
                  0x01d0a4                  vTaskPriorityDisinherit
 .text            0x01d0fe        0xa26 TCPlib.o
                  0x01d0fe                  TCPSSLStatus
                  0x01d1a6                  cTCPSSLStatus
                  0x01d1dc                  TCPSSLStart
                  0x01d284                  cTCPSSLStart
                  0x01d2b0                  TCPGenericOpen
                  0x01d3a4                  cTCPGenericOpen
                  0x01d3ce                  TCPGenericClose
                  0x01d46e                  cTCPGenericClose
                  0x01d47e                  TCPServerDetach
                  0x01d51e                  cTCPServerDetach
                  0x01d52e                  TCPClientOpen
                  0x01d544                  TCPServerOpen
                  0x01d558                  TCPRead
                  0x01d604                  TCPpRead
                  0x01d6b6                  cTCPpRead
                  0x01d700                  cTCPRead
                  0x01d722                  TCPWrite
                  0x01d7e0                  cTCPWrite
                  0x01d800                  TCPRemote
                  0x01d8c6                  cTCPRemote
                  0x01d8e2                  TCPClientClose
                  0x01d8ee                  TCPServerClose
                  0x01d8fa                  TCPisConn
                  0x01d9a8                  cTCPisConn
                  0x01d9ba                  TCPRxFlush
                  0x01da5a                  cTCPRxFlush
                  0x01da6a                  TCPRxLen
                  0x01db12                  cTCPRxLen
 .text            0x01db24        0x8a6 DNS.o
                  0x01db24                  DNSInit
                  0x01db38                  DNSBeginUsage
                  0x01db5e                  DNSEndUsage
                  0x01db94                  DNSResolve
                  0x01dbd6                  DNSIsResolved

.dinit            0x01e3ca        0x842
 .dinit           0x01e3ca        0x842 data_init

.text             0x01ec0c       0x9fb0
 .text            0x01ec0c        0x830 WFMac_24G.o
                  0x01ec0c                  GetReadPtrRawWindow
                  0x01ed32                  WFPeriodicGratuitousArp
                  0x01edba                  RetrieveBinaryKey
                  0x01edf4                  MACProcess
                  0x01ee1e                  WFGetTCBSize
                  0x01ee26                  MACInit
                  0x01ee30                  RawInit
                  0x01ee70                  MACIsLinked
                  0x01ee7a                  MACIsTxReady
                  0x01ee98                  RawGetMgmtRxBuffer
                  0x01eeac                  MACDiscardRx
                  0x01eebe                  MACGetFreeRxSize
                  0x01ef34                  MACGetHeader
                  0x01f010                  MACPutHeader
                  0x01f06c                  MACPutGeneralHeader
                  0x01f0ba                  MACFlush
                  0x01f0dc                  MACSetReadPtrInRx
                  0x01f0ec                  MACSetWritePtr
                  0x01f100                  MACSetReadPtr
                  0x01f114                  MACCalcRxChecksum
                  0x01f13c                  MACMemCopyAsync
                  0x01f364                  MACIsMemCopyDone
                  0x01f36c                  MACGet
                  0x01f38a                  MACGetArray
                  0x01f3ce                  MACPut
                  0x01f3ee                  MACPutArray
                  0x01f40e                  MACPowerDown
                  0x01f414                  MACPowerUp
                  0x01f41a                  CalcIPBufferChecksum
 .text            0x01f43c        0x800 UDPlib.o
                  0x01f43c                  UDPGenericOpen
                  0x01f504                  cUDPGenericOpen
                  0x01f5a4                  UDPLocalPort
                  0x01f5bc                  UDPServerOpen
                  0x01f5d0                  UDPClientOpen
                  0x01f5f8                  UDPBroadcastOpen
                  0x01f60c                  UDPGenericClose
                  0x01f69c                  cUDPGenericClose
                  0x01f6d0                  UDPServerClose
                  0x01f6de                  UDPClientClose
                  0x01f6ec                  UDPRxLen
                  0x01f700                  UDPRxFlush
                  0x01f750                  UDPRxOver
                  0x01f782                  UDPRead
                  0x01f8b0                  UDPpRead
                  0x01f9a0                  UDPWrite
                  0x01fa4c                  cUDPWrite
                  0x01fa88                  UDPMultiOn
                  0x01fb32                  cUDPMultiOn
                  0x01fbda                  UDPMultiOpen
 .text            0x01fc3c        0x784 UDP.o
                  0x01fc3c                  UDPInit
                  0x01fc5e                  UDPOpenEx
                  0x01fd7e                  UDPTask
                  0x01ff64                  UDPIsOpened
                  0x01ff86                  UDPClose
                  0x01ffbe                  UDPSetTxBuffer
                  0x01ffd2                  UDPSetRxBuffer
                  0x01ffe6                  UDPIsPutReady
                  0x02001e                  UDPPut
                  0x020052                  UDPPutArray
                  0x02008a                  UDPPutString
                  0x0200a0                  UDPFlush
                  0x020100                  UDPIsGetReady
                  0x02013c                  UDPGet
                  0x020174                  UDPGetArray
                  0x0201c0                  UDPDiscard
                  0x0201e8                  UDPProcess
 .text            0x0203c0        0x774 HTTPApp.o
                  0x0203c0                  HTTPExecuteGet
                  0x0203c8                  HTTPExecutePost
                  0x020ae4                  HTTPNeedsAuth
                  0x020b06                  HTTPCheckAuth
 .text            0x020b34        0x6a0 SPIFlash.o
                  0x020b34                  SPIFlashInit
                  0x020c52                  SPIFlashReadArray
                  0x020d44                  SPIFlashBeginWrite
                  0x020d52                  SPIFlashWrite
                  0x020e70                  SPIFlashWriteArray
                  0x0210b2                  SPIFlashEraseSector
 .text            0x0211d4        0x688 queue.o
                  0x0211d4                  xQueueGenericReset
                  0x021262                  xQueueGenericCreate
                  0x0212c4                  xQueueCreateMutex
                  0x02132a                  xQueueGenericSend
                  0x021414                  xQueueGenericSendFromISR
                  0x02147e                  xQueueGenericReceive
                  0x0215c4                  xQueueReceiveFromISR
                  0x021630                  uxQueueMessagesWaiting
                  0x021648                  uxQueueMessagesWaitingFromISR
                  0x021658                  vQueueDelete
                  0x0217f8                  xQueueIsQueueEmptyFromISR
                  0x02183c                  xQueueIsQueueFullFromISR
 .text            0x02185c        0x658 Main.o
                  0x02185c                  CmdCheck
                  0x021b9c                  main
                  0x021bf4                  TCPIPTask
 .text            0x021eb4        0x63e RSA.o
                  0x021eb4                  RSAInit
                  0x021ed2                  RSABeginUsage
                  0x021f0e                  RSAEndUsage
                  0x021f18                  RSASetData
                  0x021fc6                  RSASetResult
                  0x021fe0                  RSASetE
                  0x022048                  RSASetN
                  0x02206a                  RSAStep
 .text            0x0224f2        0x632 WFDriverCom_24G.o
                  0x0224f2                  WiFiTask
                  0x022576                  WFProcess
                  0x0225a8                  SignalDHCPSuccessful
                  0x0225b6                  SetDhcpProgressState
                  0x0225ce                  SignalWiFiConnectionChanged
                  0x02267c                  Read8BitWFRegister
                  0x0226a6                  Write8BitWFRegister
                  0x0226ce                  Read16BitWFRegister
                  0x022702                  Write16BitWFRegister
                  0x022736                  WriteWFArray
                  0x022766                  ReadWFArray
                  0x0228aa                  WFEintHandler
                  0x022954                  ReenablePowerSaveMode
                  0x02295e                  WFHardwareInit
 .text            0x022b24        0x628 WFDebugStrings.o
                  0x022b24                  WF_OutputConnectionContext
                  0x022bb6                  WF_OutputConnectionDebugMsg
                  0x022dfe                  WF_OutputConnectionInfo
                  0x02308c                  WF_AssertionFailed
                  0x0230fc                  WF_DisplayModuleAssertInfo
 .text            0x02314c        0x4f4 x_groveboard-pro.o
                  0x02314c                  ReadBatteryLevel
                  0x02316e                  GroveDevicesPowerSupply
                  0x02318e                  x_groveboard-pro.o:_Board_ctor
                  0x023286                  attachSensorToI2CBus
                  0x023338                  attachSensorToDigioBus
                  0x02345a                  attachSensorToAnBus
                  0x023522                  attachSensorToUartBus
 .text            0x023640        0x4da x_input_capture.o
                  0x023640                  _IC1Interrupt
                  0x02367a                  _IC2Interrupt
                  0x023694                  _IC3Interrupt
                  0x0236ce                  _IC4Interrupt
                  0x0236e8                  _IC5Interrupt
                  0x023722                  _IC6Interrupt
                  0x02373c                  IOInit_
                  0x0237e4                  ICInit
                  0x02387e                  ICOn
                  0x023950                  ICOff
                  0x0239be                  OneWireDecode
 .text            0x023b1a        0x4b6 WFParamMsg_24G.o
                  0x023b1a                  WFEnableMRF24WB0MMode
                  0x023b2c                  WFEnableDebugPrint
                  0x023b3c                  WF_SetLinkDownThreshold
                  0x023b4c                  WF_SetTxMode
                  0x023b5c                  WF_GetTxMode
                  0x023b6c                  WFEnableBroadcastProbeResponse
                  0x023b7e                  WF_GetDeviceInfo
                  0x023bd4                  WF_SetMacAddress
                  0x023be4                  WF_GetMacAddress
                  0x023bf4                  WF_MulticastSetConfig
                  0x023ca0                  WF_MulticastGetConfig
                  0x023d06                  WF_SetTxDataConfirm
                  0x023d16                  WF_GetTxDataConfirm
                  0x023d26                  WF_SetRegionalDomain
                  0x023d36                  WF_GetRegionalDomain
                  0x023d46                  WF_SetRtsThreshold
                  0x023d70                  WF_YieldPassphrase2Host
                  0x023d82                  WF_SetPSK
                  0x023d92                  WF_GetRtsThreshold
                  0x023db0                  WF_SetMultiCastFilter
                  0x023e26                  WF_EnableSWMultiCastFilter
                  0x023e38                  WF_GetMacStats
                  0x023f6c                  SendSetParamMsg
                  0x023f9c                  SendGetParamMsg
 .text            0x023fd0        0x49a WFDriverRaw_24G.o
                  0x023fd0                  RawCalculateChecksum
                  0x023fec                  AllocateMgmtTxBuffer
                  0x02403e                  DeallocateMgmtRxBuffer
                  0x02404e                  AllocateDataTxBuffer
                  0x0240aa                  SendRAWDataFrame
                  0x0240d4                  SendRAWManagementFrame
                  0x0240e6                  DeallocateDataRxBuffer
                  0x024110                  RawMountRxBuffer
                  0x024140                  RawToRawCopy
                  0x02416e                  PushRawWindow
                  0x024180                  PopRawWindow
                  0x024198                  ScratchMount
                  0x0241bc                  ScratchUnmount
                  0x0241ce                  RawRead
                  0x0241ea                  RawWrite
                  0x024288                  RawSetIndex
                  0x024314                  RawGetIndex
                  0x024330                  RawGetByte
                  0x02436c                  RawSetByte
 .text            0x02446a        0x48a WFConnectionAlgorithm.o
                  0x02446a                  WF_CASetElements
                  0x024522                  WF_CASetElementsN
                  0x024556                  WF_CAGetElements
                  0x0245a0                  WF_CASetScanType
                  0x0245b0                  WF_CAGetScanType
                  0x0245c2                  WF_CASetMinChannelTime
                  0x0245dc                  WF_CAGetMinChannelTime
                  0x0245fc                  WF_CASetMaxChannelTime
                  0x024616                  WF_CAGetMaxChannelTime
                  0x024636                  WF_CASetProbeDelay
                  0x024650                  WF_CAGetProbeDelay
                  0x024670                  WF_CASetScanCount
                  0x024680                  WF_CAGetScanCount
                  0x024692                  WF_CASetRssi
                  0x0246a2                  WF_CAGetRssi
                  0x0246b4                  WF_CASetListRetryCount
                  0x0246c4                  WF_CAGetListRetryCount
                  0x0246d6                  WF_CASetEventNotificationAction
                  0x0246e2                  WF_CAGetEventNotificationAction
                  0x0246f2                  WF_CASetBeaconTimeoutAction
                  0x024702                  WF_CAGetBeaconTimeoutAction
                  0x024714                  WF_CASetDeauthAction
                  0x024724                  WF_CAGetDeauthAction
                  0x024736                  WF_CASetChannelList
                  0x024748                  WF_CAGetChannelList
                  0x024784                  WF_CASetListenInterval
                  0x02479e                  WF_CASetDtimInterval
                  0x0247b8                  WF_CAGetListenInterval
                  0x0247d8                  WF_CASetBeaconPeriod
                  0x0247f2                  WF_CAGetBeaconPeriod
                  0x024812                  WF_CAGetDtimInterval
                  0x024832                  WF_CASetBeaconTimeout
                  0x024842                  WF_CAGetBeaconTimeout
                  0x024860                  GetEventNotificationMask
                  0x0248e2                  WF_DisableModuleConnectionManager
 .text            0x0248f4        0x482 StackTsk.o
                  0x0248f4                  StackInit
                  0x02496e                  StackTask
                  0x024d4e                  StackApplications
                  0x024d68                  RenewDhcp
 .text            0x024d76        0x46e ARP.o
                  0x024d76                  ARPSendPkt
                  0x024e3a                  ARPInit
                  0x024e94                  ARPProcess
                  0x024fac                  ARPResolve
                  0x025090                  ARPIsResolved
                  0x0251b2                  SwapARPPacket
 .text            0x0251e4        0x3c6 NBNS.o
                  0x0251e4                  NBNSInit
                  0x0251ee                  NBNSTask
 .text            0x0255aa        0x3b2 SMTPlib.o
                  0x0255aa                  GenericSMTP
                  0x025652                  SMTPStart
                  0x02565c                  cSMTPStart
                  0x02566a                  SMTPSetServer
                  0x02570a                  cSMTPSetServer
                  0x025756                  SMTPSetMsg
                  0x0257f6                  cSMTPSetMsg
                  0x025852                  SMTPSend
                  0x02585c                  cSMTPSend
                  0x02586c                  SMTPBusy
                  0x025876                  cSMTPBusy
                  0x025884                  SMTPStop
                  0x02588e                  cSMTPStop
                  0x0258a8                  SMTPReport
                  0x02594e                  cSMTPReport
 .text            0x02595c        0x3a2 WFConnectionProfile.o
                  0x02595c                  WF_CPCreate
                  0x02598a                  WF_CPDelete
                  0x0259ae                  WF_CPGetIds
                  0x0259d6                  WF_CPSetElements
                  0x0259fc                  WF_CPGetElements
                  0x025a12                  WF_CPSetSsidType
                  0x025a26                  WF_CPGetSsidType
                  0x025a3c                  WF_CPSetSsid
                  0x025a62                  WF_CPGetSsid
                  0x025aa2                  WF_CPSetBssid
                  0x025ab6                  WF_CPGetBssid
                  0x025acc                  WF_CPSetNetworkType
                  0x025ae0                  WF_CPGetNetworkType
                  0x025af6                  WF_CPSetWepKeyType
                  0x025b0a                  WF_CPGetWepKeyType
                  0x025b20                  WF_CPGetWPSCredentials
                  0x025b36                  WF_CPUpdatePMK
                  0x025b4a                  WF_CPSetSecurity
                  0x025bc2                  WF_CPGetSecurity
                  0x025c2c                  WF_CPSetDefaultWepKeyIndex
                  0x025c40                  WF_CPGetDefaultWepKeyIndex
                  0x025c56                  WF_CPSetAdHocBehavior
                  0x025c6a                  WF_CPGetAdHocBehavior
 .text            0x025cfe        0x302 BigInt.o
                  0x025cfe                  BigInt
                  0x025d2e                  BigIntZero
                  0x025d54                  BigIntMod
                  0x025e2a                  BigIntCompare
                  0x025ebe                  BigIntMagnitudeDifference
                  0x025ed8                  BigIntMagnitude
                  0x025f3a                  BigIntMultiply
                  0x025f72                  BigIntSquare
                  0x025f9c                  BigIntCopy
                  0x025fc8                  BigIntSwapEndianness
 .text            0x026000        0x2fc RTCClib.o
                  0x026000                  _RTCCInterrupt
                  0x02604a                  RTCCAlarmStat
                  0x026066                  RTCCSet
                  0x0260ee                  RTCCGet
                  0x02615a                  RTCCAlarmConf
                  0x026246                  RTCCAlarmSet
 .text            0x0262fc        0x28a TCPIP_Utils.o
                  0x0262fc                  DisplayIPValue
                  0x026336                  InitAppConfig
 .text            0x026586        0x252 WFEventHandler.o
                  0x026586                  WFProcessMgmtIndicateMsg
 .text            0x0267d8        0x232 x_grovelib-pro.o
                  0x0267d8                  new
                  0x026802                  delete_
                  0x026834                  delet_
                  0x026842                  attachToBoard
                  0x02688e                  configure
                  0x0268ca                  set
                  0x026906                  get
                  0x026956                  readError
 .text            0x026a0a        0x230 SNTP.o
                  0x026a0a                  SNTPInit
                  0x026a1a                  SNTPClient
                  0x026be2                  SNTPGetUTCSeconds
 .text            0x026c3a        0x200 IP.o
                  0x026c3a                  IPGetHeader
                  0x026d4c                  IPPutHeader
                  0x026df4                  IPSetRxBuffer
 .text            0x026e3a        0x1e2 x_digital_io-pro.o
                  0x026e3a                  x_digital_io-pro.o:_Dig_io_ctor
                  0x026ed4                  x_digital_io-pro.o:_Dig_io_dtor
                  0x026f12                  x_digital_io-pro.o:_Dig_io_attach
                  0x026f52                  x_digital_io-pro.o:_Dig_io_set_dig_io
                  0x026ff6                  x_digital_io-pro.o:_Dig_io_get_dig_io
 .text            0x02701c        0x1be WFMgmtMsg_24G.o
                  0x02701c                  SendMgmtMsg
                  0x0270a2                  SignalMgmtConfirmReceivedEvent
                  0x0270ac                  WaitForMgmtResponse
                  0x02714c                  WaitForMgmtResponseAndReadData
                  0x0271ae                  WFSetFuncState
 .text            0x0271da        0x1ba INTlib.o
                  0x0271da                  nothigToDo
                  0x0271e0                  INTDetach
                  0x027210                  INTAttach
                  0x027242                  INTInit
                  0x0272da                  INTPriority
                  0x02733a                  INTEnable
                  0x02736a                  INTDisable
 .text            0x027394        0x1b0 ISRs.o
                  0x027394                  _U1RXInterrupt
                  0x0273b4                  _U2RXInterrupt
                  0x0273d4                  _U3RXInterrupt
                  0x0273f4                  _U4RXInterrupt
                  0x0273fa                  _DefaultInterrupt
                  0x027424                  _OscillatorFail
                  0x02744e                  _AddressError
                  0x027478                  _StackError
                  0x0274a2                  _MathError
                  0x0274cc                  _INT2Interrupt
                  0x0274f4                  _INT3Interrupt
                  0x02751c                  _INT4Interrupt
 .text            0x027544        0x18a heap_2.o
                  0x027544                  pvPortMalloc
                  0x027634                  vPortFree
                  0x027690                  xPortGetFreeHeapSize
                  0x027698                  vPortInitialiseBlocks
 .text            0x0276ce        0x188 Announce.o
                  0x0276ce                  AnnounceInit
                  0x0276d8                  AnnounceIP
                  0x027764                  DiscoveryTask
 .text            0x027856        0x16a WFPowerSave.o
                  0x027856                  WFConfigureLowPowerMode
                  0x027896                  WF_PsPollEnable
                  0x0278d8                  isSleepNeeded
                  0x0278e0                  ClearSleepNeeded
                  0x0278ea                  SetSleepNeeded
                  0x0278f4                  SetAppPowerSaveMode
                  0x027900                  GetAppPowerSaveMode
                  0x027908                  WF_PsPollDisable
                  0x02792a                  WF_GetPowerSaveState
                  0x02793a                  WFisPsPollEnabled
                  0x02795c                  WFIsPsPollActive
                  0x027964                  EnsureWFisAwake
                  0x027986                  WF_HibernateEnable
                  0x0279b4                  SetPowerSaveState
 .text            0x0279c0        0x156 port.o
                  0x0279c0                  pxPortInitialiseStack
                  0x027a56                  xPortStartScheduler
                  0x027a86                  vPortEndScheduler
                  0x027aba                  vPortEnterCritical
                  0x027ace                  vPortExitCritical
                  0x027ae8                  _T5Interrupt
 .text            0x027b16        0x140 WFConnectionManager.o
                  0x027b16                  WF_CMConnect
                  0x027b66                  WF_CMDisconnect
                  0x027b9e                  WF_CMGetConnectionState
                  0x027bf4                  WFisConnected
                  0x027bfc                  SetLogicalConnectionState
                  0x027c08                  WF_CMCheckConnectionState
                  0x027c44                  WF_CMGetConnectContext
 .text            0x027c56        0x12e Tick.o
                  0x027c56                  TickInit
                  0x027cda                  TickGet
                  0x027ce6                  TickGetDiv256
                  0x027d16                  TickGetDiv64K
                  0x027d46                  TickConvertToMilliseconds
                  0x027d6c                  _T1Interrupt
 .text            0x027d84        0x12c list.o
                  0x027d84                  vListInitialise
                  0x027db6                  vListInitialiseItem
                  0x027dc4                  vListInsertEnd
                  0x027e08                  vListInsert
                  0x027e68                  uxListRemove
 .text            0x027eb0        0x122 ARCFOUR.o
                  0x027eb0                  ARCFOURInitialize
                  0x027f42                  ARCFOURCrypt
 .text            0x027fd2        0x112 HWInit.o
                  0x027fd2                  HWInit
 .text            0x0280e4        0x110 Delay.o
                  0x0280e4                  DelayMs
                  0x028110                  Delay10us
 .text            0x0281f4        0x10a WF_Config.o
                  0x0281f4                  WF_ProcessEvent
 .text            0x0282fe        0x108 ARPlib.o
                  0x0282fe                  ARPResolveMAC
                  0x0283ba                  cARPResolveMAC
 .text            0x028406         0xdc BigInt_helper.o
                  0x028406                  _addBI
                  0x028426                  _subBI
                  0x028446                  _zeroBI
                  0x028452                  _msbBI
                  0x028462                  _mulBI
                  0x028498                  _sqrBI
                  0x0284a2                  _masBI
                  0x0284c4                  _copyBI
 .text            0x0284e2         0xd4 WF_Spi.o
                  0x0284e2                  WF_SpiInit
                  0x028502                  WF_SpiEnableChipSelect
                  0x02850a                  WF_SpiDisableChipSelect
                  0x028514                  WFSpiTxRx
 .text            0x0285b6         0xc6 WF_Utils.o
                  0x0285b6                  WF_Connect
 .text            0x02867c         0xb4 WFScan.o
                  0x0286a2                  WF_Scan
                  0x0286e0                  WF_ScanGetResult
 .text            0x028730         0xa6 Random.o
                  0x028730                  RandomInit
                  0x028776                  RandomGet
                  0x0287ae                  RandomAdd
 .text            0x0287d6         0x9a WF_Eint.o
                  0x0287d6                  WF_EintIsDisabled
                  0x0287e8                  WF_EintIsPending
                  0x02880a                  _INT1Interrupt
                  0x028844                  WF_EintEnable
                  0x028856                  WF_EintDisable
                  0x02885e                  WF_EintInit
 .text            0x028870         0x98 x_i2c_devices-pro.o
                  0x028870                  set_register
                  0x0288cc                  read_register
 .text            0x028908         0x88 WFTxPower.o
                  0x028908                  WF_TxPowerSetMax
                  0x02894a                  WF_TxPowerGetMax
                  0x028976                  WF_TxPowerGetFactoryMax
 .text            0x028990         0x84 x_analog_in-pro.o
                  0x028990                  x_analog_in-pro.o:_An_i_ctor
                  0x0289a6                  x_analog_in-pro.o:_An_i_dtor
                  0x0289cc                  x_analog_in-pro.o:_An_i_attach
                  0x0289ee                  x_analog_in-pro.o:_An_i_getan_i
 .text            0x028a14         0x7e ICMP.o
                  0x028a14                  ICMPProcess
 .text            0x028a92         0x6e WF_Events.o
                  0x028a92                  OnConnectionSuccessful
                  0x028aa2                  OnConnectionFailed
                  0x028aac                  OnConnectionTempLost
                  0x028ab6                  OnConnectionReestablished
                  0x028ac6                  OnConnectionPermLost
                  0x028ad0                  OnScanResult
 .text            0x028b00         0x68 WFInit.o
                  0x028b00                  WF_Init
 .text            0x028b68         0x54 portasm_PIC24.o
                  0x028b68                  vPortYield

MPFSHelpers       0x028bbc          0xe
 MPFSHelpers      0x028bbc          0xe MPFSImg2.o
                  0x028bbc                  ReadProgramMemory
